
lab5.elf:     file format elf32-avr

Sections:
Idx Name          Size      VMA       LMA       File off  Algn
  0 .text         00000248  00000000  00000000  00000094  2**1
                  CONTENTS, ALLOC, LOAD, READONLY, CODE
  1 .data         00000018  00800060  00000248  000002dc  2**0
                  CONTENTS, ALLOC, LOAD, DATA
  2 .bss          00000025  00800078  00800078  000002f4  2**0
                  ALLOC
  3 .comment      00000011  00000000  00000000  000002f4  2**0
                  CONTENTS, READONLY

Disassembly of section .text:

00000000 <__vectors>:
   0:	0c 94 2a 00 	jmp	0x54	; 0x54 <__ctors_end>
   4:	0c 94 47 00 	jmp	0x8e	; 0x8e <__bad_interrupt>
   8:	0c 94 47 00 	jmp	0x8e	; 0x8e <__bad_interrupt>
   c:	0c 94 47 00 	jmp	0x8e	; 0x8e <__bad_interrupt>
  10:	0c 94 47 00 	jmp	0x8e	; 0x8e <__bad_interrupt>
  14:	0c 94 47 00 	jmp	0x8e	; 0x8e <__bad_interrupt>
  18:	0c 94 47 00 	jmp	0x8e	; 0x8e <__bad_interrupt>
  1c:	0c 94 49 00 	jmp	0x92	; 0x92 <__vector_7>
  20:	0c 94 47 00 	jmp	0x8e	; 0x8e <__bad_interrupt>
  24:	0c 94 47 00 	jmp	0x8e	; 0x8e <__bad_interrupt>
  28:	0c 94 47 00 	jmp	0x8e	; 0x8e <__bad_interrupt>
  2c:	0c 94 47 00 	jmp	0x8e	; 0x8e <__bad_interrupt>
  30:	0c 94 47 00 	jmp	0x8e	; 0x8e <__bad_interrupt>
  34:	0c 94 c3 00 	jmp	0x186	; 0x186 <__vector_13>
  38:	0c 94 47 00 	jmp	0x8e	; 0x8e <__bad_interrupt>
  3c:	0c 94 f3 00 	jmp	0x1e6	; 0x1e6 <__vector_15>
  40:	0c 94 47 00 	jmp	0x8e	; 0x8e <__bad_interrupt>
  44:	0c 94 47 00 	jmp	0x8e	; 0x8e <__bad_interrupt>
  48:	0c 94 47 00 	jmp	0x8e	; 0x8e <__bad_interrupt>
  4c:	0c 94 47 00 	jmp	0x8e	; 0x8e <__bad_interrupt>
  50:	0c 94 47 00 	jmp	0x8e	; 0x8e <__bad_interrupt>

00000054 <__ctors_end>:
  54:	11 24       	eor	r1, r1
  56:	1f be       	out	0x3f, r1	; 63
  58:	cf e5       	ldi	r28, 0x5F	; 95
  5a:	d8 e0       	ldi	r29, 0x08	; 8
  5c:	de bf       	out	0x3e, r29	; 62
  5e:	cd bf       	out	0x3d, r28	; 61

00000060 <__do_copy_data>:
  60:	10 e0       	ldi	r17, 0x00	; 0
  62:	a0 e6       	ldi	r26, 0x60	; 96
  64:	b0 e0       	ldi	r27, 0x00	; 0
  66:	e8 e4       	ldi	r30, 0x48	; 72
  68:	f2 e0       	ldi	r31, 0x02	; 2
  6a:	02 c0       	rjmp	.+4      	; 0x70 <__do_copy_data+0x10>
  6c:	05 90       	lpm	r0, Z+
  6e:	0d 92       	st	X+, r0
  70:	a8 37       	cpi	r26, 0x78	; 120
  72:	b1 07       	cpc	r27, r17
  74:	d9 f7       	brne	.-10     	; 0x6c <__do_copy_data+0xc>

00000076 <__do_clear_bss>:
  76:	20 e0       	ldi	r18, 0x00	; 0
  78:	a8 e7       	ldi	r26, 0x78	; 120
  7a:	b0 e0       	ldi	r27, 0x00	; 0
  7c:	01 c0       	rjmp	.+2      	; 0x80 <.do_clear_bss_start>

0000007e <.do_clear_bss_loop>:
  7e:	1d 92       	st	X+, r1

00000080 <.do_clear_bss_start>:
  80:	ad 39       	cpi	r26, 0x9D	; 157
  82:	b2 07       	cpc	r27, r18
  84:	e1 f7       	brne	.-8      	; 0x7e <.do_clear_bss_loop>
  86:	0e 94 5e 00 	call	0xbc	; 0xbc <main>
  8a:	0c 94 22 01 	jmp	0x244	; 0x244 <_exit>

0000008e <__bad_interrupt>:
  8e:	0c 94 00 00 	jmp	0	; 0x0 <__vectors>

00000092 <__vector_7>:
  92:	1f 92       	push	r1
  94:	0f 92       	push	r0
  96:	0f b6       	in	r0, 0x3f	; 63
  98:	0f 92       	push	r0
  9a:	11 24       	eor	r1, r1
  9c:	8f 93       	push	r24
  9e:	b6 99       	sbic	0x16, 6	; 22
  a0:	07 c0       	rjmp	.+14     	; 0xb0 <__vector_7+0x1e>
  a2:	85 b3       	in	r24, 0x15	; 21
  a4:	81 11       	cpse	r24, r1
  a6:	03 c0       	rjmp	.+6      	; 0xae <__vector_7+0x1c>
  a8:	8f ef       	ldi	r24, 0xFF	; 255
  aa:	85 bb       	out	0x15, r24	; 21
  ac:	01 c0       	rjmp	.+2      	; 0xb0 <__vector_7+0x1e>
  ae:	15 ba       	out	0x15, r1	; 21
  b0:	8f 91       	pop	r24
  b2:	0f 90       	pop	r0
  b4:	0f be       	out	0x3f, r0	; 63
  b6:	0f 90       	pop	r0
  b8:	1f 90       	pop	r1
  ba:	18 95       	reti

000000bc <main>:
  bc:	8f ef       	ldi	r24, 0xFF	; 255
  be:	84 bb       	out	0x14, r24	; 20
  c0:	17 ba       	out	0x17, r1	; 23
  c2:	88 bb       	out	0x18, r24	; 24
  c4:	8e b5       	in	r24, 0x2e	; 46
  c6:	8b 60       	ori	r24, 0x0B	; 11
  c8:	8e bd       	out	0x2e, r24	; 46
  ca:	80 e8       	ldi	r24, 0x80	; 128
  cc:	93 e4       	ldi	r25, 0x43	; 67
  ce:	9b bd       	out	0x2b, r25	; 43
  d0:	8a bd       	out	0x2a, r24	; 42
  d2:	89 b7       	in	r24, 0x39	; 57
  d4:	80 61       	ori	r24, 0x10	; 16
  d6:	89 bf       	out	0x39, r24	; 57
  d8:	78 94       	sei
  da:	85 e0       	ldi	r24, 0x05	; 5
  dc:	0e 94 a0 00 	call	0x140	; 0x140 <USART_init>
  e0:	80 e6       	ldi	r24, 0x60	; 96
  e2:	90 e0       	ldi	r25, 0x00	; 0
  e4:	0e 94 ab 00 	call	0x156	; 0x156 <USART_send>
  e8:	cf ef       	ldi	r28, 0xFF	; 255
  ea:	80 91 78 00 	lds	r24, 0x0078
  ee:	81 30       	cpi	r24, 0x01	; 1
  f0:	e1 f7       	brne	.-8      	; 0xea <main+0x2e>
  f2:	42 e0       	ldi	r20, 0x02	; 2
  f4:	50 e0       	ldi	r21, 0x00	; 0
  f6:	67 e6       	ldi	r22, 0x67	; 103
  f8:	70 e0       	ldi	r23, 0x00	; 0
  fa:	89 e7       	ldi	r24, 0x79	; 121
  fc:	90 e0       	ldi	r25, 0x00	; 0
  fe:	0e 94 14 01 	call	0x228	; 0x228 <strncmp>
 102:	89 2b       	or	r24, r25
 104:	49 f4       	brne	.+18     	; 0x118 <main+0x5c>
 106:	8a e6       	ldi	r24, 0x6A	; 106
 108:	90 e0       	ldi	r25, 0x00	; 0
 10a:	0e 94 ab 00 	call	0x156	; 0x156 <USART_send>
 10e:	15 ba       	out	0x15, r1	; 21
 110:	10 92 78 00 	sts	0x0078, r1
 114:	10 92 9c 00 	sts	0x009C, r1
 118:	43 e0       	ldi	r20, 0x03	; 3
 11a:	50 e0       	ldi	r21, 0x00	; 0
 11c:	6e e6       	ldi	r22, 0x6E	; 110
 11e:	70 e0       	ldi	r23, 0x00	; 0
 120:	89 e7       	ldi	r24, 0x79	; 121
 122:	90 e0       	ldi	r25, 0x00	; 0
 124:	0e 94 14 01 	call	0x228	; 0x228 <strncmp>
 128:	89 2b       	or	r24, r25
 12a:	f9 f6       	brne	.-66     	; 0xea <main+0x2e>
 12c:	82 e7       	ldi	r24, 0x72	; 114
 12e:	90 e0       	ldi	r25, 0x00	; 0
 130:	0e 94 ab 00 	call	0x156	; 0x156 <USART_send>
 134:	c5 bb       	out	0x15, r28	; 21
 136:	10 92 78 00 	sts	0x0078, r1
 13a:	10 92 9c 00 	sts	0x009C, r1
 13e:	d5 cf       	rjmp	.-86     	; 0xea <main+0x2e>

00000140 <USART_init>:
 140:	10 bc       	out	0x20, r1	; 32
 142:	89 b9       	out	0x09, r24	; 9
 144:	86 e8       	ldi	r24, 0x86	; 134
 146:	80 bd       	out	0x20, r24	; 32
 148:	8a b1       	in	r24, 0x0a	; 10
 14a:	88 6d       	ori	r24, 0xD8	; 216
 14c:	8a b9       	out	0x0a, r24	; 10
 14e:	08 95       	ret

00000150 <USART_wait_for_empty>:
 150:	5d 9b       	sbis	0x0b, 5	; 11
 152:	fe cf       	rjmp	.-4      	; 0x150 <USART_wait_for_empty>
 154:	08 95       	ret

00000156 <USART_send>:
 156:	cf 93       	push	r28
 158:	df 93       	push	r29
 15a:	00 d0       	rcall	.+0      	; 0x15c <USART_send+0x6>
 15c:	cd b7       	in	r28, 0x3d	; 61
 15e:	de b7       	in	r29, 0x3e	; 62
 160:	89 83       	std	Y+1, r24	; 0x01
 162:	9a 83       	std	Y+2, r25	; 0x02
 164:	0e 94 a8 00 	call	0x150	; 0x150 <USART_wait_for_empty>
 168:	89 81       	ldd	r24, Y+1	; 0x01
 16a:	e8 2f       	mov	r30, r24
 16c:	9a 81       	ldd	r25, Y+2	; 0x02
 16e:	f9 2f       	mov	r31, r25
 170:	81 91       	ld	r24, Z+
 172:	8c b9       	out	0x0c, r24	; 12
 174:	f0 93 9a 00 	sts	0x009A, r31
 178:	e0 93 99 00 	sts	0x0099, r30
 17c:	0f 90       	pop	r0
 17e:	0f 90       	pop	r0
 180:	df 91       	pop	r29
 182:	cf 91       	pop	r28
 184:	08 95       	ret

00000186 <__vector_13>:
 186:	1f 92       	push	r1
 188:	0f 92       	push	r0
 18a:	0f b6       	in	r0, 0x3f	; 63
 18c:	0f 92       	push	r0
 18e:	11 24       	eor	r1, r1
 190:	8f 93       	push	r24
 192:	ef 93       	push	r30
 194:	ff 93       	push	r31
 196:	8c b1       	in	r24, 0x0c	; 12
 198:	80 93 9b 00 	sts	0x009B, r24
 19c:	80 91 9c 00 	lds	r24, 0x009C
 1a0:	8f 31       	cpi	r24, 0x1F	; 31
 1a2:	10 f0       	brcs	.+4      	; 0x1a8 <__vector_13+0x22>
 1a4:	10 92 9c 00 	sts	0x009C, r1
 1a8:	e0 91 9c 00 	lds	r30, 0x009C
 1ac:	f0 e0       	ldi	r31, 0x00	; 0
 1ae:	80 91 9b 00 	lds	r24, 0x009B
 1b2:	e7 58       	subi	r30, 0x87	; 135
 1b4:	ff 4f       	sbci	r31, 0xFF	; 255
 1b6:	80 83       	st	Z, r24
 1b8:	80 91 9c 00 	lds	r24, 0x009C
 1bc:	8f 5f       	subi	r24, 0xFF	; 255
 1be:	80 93 9c 00 	sts	0x009C, r24
 1c2:	80 91 9b 00 	lds	r24, 0x009B
 1c6:	8a 30       	cpi	r24, 0x0A	; 10
 1c8:	21 f4       	brne	.+8      	; 0x1d2 <__vector_13+0x4c>
 1ca:	81 e0       	ldi	r24, 0x01	; 1
 1cc:	80 93 78 00 	sts	0x0078, r24
 1d0:	02 c0       	rjmp	.+4      	; 0x1d6 <__vector_13+0x50>
 1d2:	10 92 78 00 	sts	0x0078, r1
 1d6:	ff 91       	pop	r31
 1d8:	ef 91       	pop	r30
 1da:	8f 91       	pop	r24
 1dc:	0f 90       	pop	r0
 1de:	0f be       	out	0x3f, r0	; 63
 1e0:	0f 90       	pop	r0
 1e2:	1f 90       	pop	r1
 1e4:	18 95       	reti

000001e6 <__vector_15>:
 1e6:	1f 92       	push	r1
 1e8:	0f 92       	push	r0
 1ea:	0f b6       	in	r0, 0x3f	; 63
 1ec:	0f 92       	push	r0
 1ee:	11 24       	eor	r1, r1
 1f0:	8f 93       	push	r24
 1f2:	9f 93       	push	r25
 1f4:	ef 93       	push	r30
 1f6:	ff 93       	push	r31
 1f8:	e0 91 99 00 	lds	r30, 0x0099
 1fc:	f0 91 9a 00 	lds	r31, 0x009A
 200:	80 81       	ld	r24, Z
 202:	88 23       	and	r24, r24
 204:	41 f0       	breq	.+16     	; 0x216 <__vector_15+0x30>
 206:	cf 01       	movw	r24, r30
 208:	01 96       	adiw	r24, 0x01	; 1
 20a:	90 93 9a 00 	sts	0x009A, r25
 20e:	80 93 99 00 	sts	0x0099, r24
 212:	80 81       	ld	r24, Z
 214:	8c b9       	out	0x0c, r24	; 12
 216:	ff 91       	pop	r31
 218:	ef 91       	pop	r30
 21a:	9f 91       	pop	r25
 21c:	8f 91       	pop	r24
 21e:	0f 90       	pop	r0
 220:	0f be       	out	0x3f, r0	; 63
 222:	0f 90       	pop	r0
 224:	1f 90       	pop	r1
 226:	18 95       	reti

00000228 <strncmp>:
 228:	fb 01       	movw	r30, r22
 22a:	dc 01       	movw	r26, r24
 22c:	41 50       	subi	r20, 0x01	; 1
 22e:	50 40       	sbci	r21, 0x00	; 0
 230:	30 f0       	brcs	.+12     	; 0x23e <strncmp+0x16>
 232:	8d 91       	ld	r24, X+
 234:	01 90       	ld	r0, Z+
 236:	80 19       	sub	r24, r0
 238:	19 f4       	brne	.+6      	; 0x240 <strncmp+0x18>
 23a:	00 20       	and	r0, r0
 23c:	b9 f7       	brne	.-18     	; 0x22c <strncmp+0x4>
 23e:	88 1b       	sub	r24, r24
 240:	99 0b       	sbc	r25, r25
 242:	08 95       	ret

00000244 <_exit>:
 244:	f8 94       	cli

00000246 <__stop_program>:
 246:	ff cf       	rjmp	.-2      	; 0x246 <__stop_program>
