
lab3.elf:     file format elf32-avr

Sections:
Idx Name          Size      VMA       LMA       File off  Algn
  0 .text         00000e70  00000000  00000000  00000094  2**1
                  CONTENTS, ALLOC, LOAD, READONLY, CODE
  1 .data         0000000e  00800060  00000e70  00000f04  2**0
                  CONTENTS, ALLOC, LOAD, DATA
  2 .bss          00000006  0080006e  0080006e  00000f12  2**0
                  ALLOC
  3 .comment      00000011  00000000  00000000  00000f12  2**0
                  CONTENTS, READONLY

Disassembly of section .text:

00000000 <__vectors>:
   0:	0c 94 57 00 	jmp	0xae	; 0xae <__ctors_end>
   4:	0c 94 74 00 	jmp	0xe8	; 0xe8 <__bad_interrupt>
   8:	0c 94 74 00 	jmp	0xe8	; 0xe8 <__bad_interrupt>
   c:	0c 94 74 00 	jmp	0xe8	; 0xe8 <__bad_interrupt>
  10:	0c 94 74 00 	jmp	0xe8	; 0xe8 <__bad_interrupt>
  14:	0c 94 74 00 	jmp	0xe8	; 0xe8 <__bad_interrupt>
  18:	0c 94 74 00 	jmp	0xe8	; 0xe8 <__bad_interrupt>
  1c:	0c 94 74 00 	jmp	0xe8	; 0xe8 <__bad_interrupt>
  20:	0c 94 74 00 	jmp	0xe8	; 0xe8 <__bad_interrupt>
  24:	0c 94 74 00 	jmp	0xe8	; 0xe8 <__bad_interrupt>
  28:	0c 94 74 00 	jmp	0xe8	; 0xe8 <__bad_interrupt>
  2c:	0c 94 74 00 	jmp	0xe8	; 0xe8 <__bad_interrupt>
  30:	0c 94 74 00 	jmp	0xe8	; 0xe8 <__bad_interrupt>
  34:	0c 94 74 00 	jmp	0xe8	; 0xe8 <__bad_interrupt>
  38:	0c 94 74 00 	jmp	0xe8	; 0xe8 <__bad_interrupt>
  3c:	0c 94 74 00 	jmp	0xe8	; 0xe8 <__bad_interrupt>
  40:	0c 94 74 00 	jmp	0xe8	; 0xe8 <__bad_interrupt>
  44:	0c 94 74 00 	jmp	0xe8	; 0xe8 <__bad_interrupt>
  48:	0c 94 74 00 	jmp	0xe8	; 0xe8 <__bad_interrupt>
  4c:	0c 94 74 00 	jmp	0xe8	; 0xe8 <__bad_interrupt>
  50:	0c 94 74 00 	jmp	0xe8	; 0xe8 <__bad_interrupt>

00000054 <__trampolines_end>:
  54:	63 64       	ori	r22, 0x43	; 67
  56:	69 6e       	ori	r22, 0xE9	; 233
  58:	6f 70       	andi	r22, 0x0F	; 15
  5a:	73 75       	andi	r23, 0x53	; 83
  5c:	78 58       	subi	r23, 0x88	; 136
  5e:	5b 65       	ori	r21, 0x5B	; 91
  60:	66 67       	ori	r22, 0x76	; 118
  62:	45 46       	sbci	r20, 0x65	; 101
  64:	47 00       	.word	0x0047	; ????

00000066 <pstr_an>:
  66:	61 6e 00                                            an.

00000069 <pstr_nfinity>:
  69:	6e 66 69 6e 69 74 79 00                             nfinity.

00000071 <pwr_m10>:
  71:	cd cc cc 3d 0a d7 23 3c 17 b7 d1 38 77 cc 2b 32     ...=..#<...8w.+2
  81:	95 95 e6 24 1f b1 4f 0a                             ...$..O.

00000089 <pwr_p10>:
  89:	00 00 20 41 00 00 c8 42 00 40 1c 46 20 bc be 4c     .. A...B.@.F ..L
  99:	ca 1b 0e 5a ae c5 9d 74                             ...Z...t

000000a1 <tekst>:
  a1:	48 65 6c 6c 6f 20 57 6f 72 6c 64 21 00              Hello World!.

000000ae <__ctors_end>:
  ae:	11 24       	eor	r1, r1
  b0:	1f be       	out	0x3f, r1	; 63
  b2:	cf e5       	ldi	r28, 0x5F	; 95
  b4:	d8 e0       	ldi	r29, 0x08	; 8
  b6:	de bf       	out	0x3e, r29	; 62
  b8:	cd bf       	out	0x3d, r28	; 61

000000ba <__do_copy_data>:
  ba:	10 e0       	ldi	r17, 0x00	; 0
  bc:	a0 e6       	ldi	r26, 0x60	; 96
  be:	b0 e0       	ldi	r27, 0x00	; 0
  c0:	e0 e7       	ldi	r30, 0x70	; 112
  c2:	fe e0       	ldi	r31, 0x0E	; 14
  c4:	02 c0       	rjmp	.+4      	; 0xca <__do_copy_data+0x10>
  c6:	05 90       	lpm	r0, Z+
  c8:	0d 92       	st	X+, r0
  ca:	ae 36       	cpi	r26, 0x6E	; 110
  cc:	b1 07       	cpc	r27, r17
  ce:	d9 f7       	brne	.-10     	; 0xc6 <__do_copy_data+0xc>

000000d0 <__do_clear_bss>:
  d0:	20 e0       	ldi	r18, 0x00	; 0
  d2:	ae e6       	ldi	r26, 0x6E	; 110
  d4:	b0 e0       	ldi	r27, 0x00	; 0
  d6:	01 c0       	rjmp	.+2      	; 0xda <.do_clear_bss_start>

000000d8 <.do_clear_bss_loop>:
  d8:	1d 92       	st	X+, r1

000000da <.do_clear_bss_start>:
  da:	a4 37       	cpi	r26, 0x74	; 116
  dc:	b2 07       	cpc	r27, r18
  de:	e1 f7       	brne	.-8      	; 0xd8 <.do_clear_bss_loop>
  e0:	0e 94 75 06 	call	0xcea	; 0xcea <main>
  e4:	0c 94 36 07 	jmp	0xe6c	; 0xe6c <_exit>

000000e8 <__bad_interrupt>:
  e8:	0c 94 00 00 	jmp	0	; 0x0 <__vectors>

000000ec <putval>:
  ec:	20 fd       	sbrc	r18, 0
  ee:	09 c0       	rjmp	.+18     	; 0x102 <putval+0x16>
  f0:	fc 01       	movw	r30, r24
  f2:	23 fd       	sbrc	r18, 3
  f4:	05 c0       	rjmp	.+10     	; 0x100 <putval+0x14>
  f6:	22 ff       	sbrs	r18, 2
  f8:	02 c0       	rjmp	.+4      	; 0xfe <putval+0x12>
  fa:	73 83       	std	Z+3, r23	; 0x03
  fc:	62 83       	std	Z+2, r22	; 0x02
  fe:	51 83       	std	Z+1, r21	; 0x01
 100:	40 83       	st	Z, r20
 102:	08 95       	ret

00000104 <mulacc>:
 104:	44 fd       	sbrc	r20, 4
 106:	10 c0       	rjmp	.+32     	; 0x128 <mulacc+0x24>
 108:	46 fd       	sbrc	r20, 6
 10a:	10 c0       	rjmp	.+32     	; 0x12c <mulacc+0x28>
 10c:	db 01       	movw	r26, r22
 10e:	fc 01       	movw	r30, r24
 110:	aa 0f       	add	r26, r26
 112:	bb 1f       	adc	r27, r27
 114:	ee 1f       	adc	r30, r30
 116:	ff 1f       	adc	r31, r31
 118:	10 94       	com	r1
 11a:	d1 f7       	brne	.-12     	; 0x110 <mulacc+0xc>
 11c:	6a 0f       	add	r22, r26
 11e:	7b 1f       	adc	r23, r27
 120:	8e 1f       	adc	r24, r30
 122:	9f 1f       	adc	r25, r31
 124:	31 e0       	ldi	r19, 0x01	; 1
 126:	03 c0       	rjmp	.+6      	; 0x12e <mulacc+0x2a>
 128:	33 e0       	ldi	r19, 0x03	; 3
 12a:	01 c0       	rjmp	.+2      	; 0x12e <mulacc+0x2a>
 12c:	34 e0       	ldi	r19, 0x04	; 4
 12e:	66 0f       	add	r22, r22
 130:	77 1f       	adc	r23, r23
 132:	88 1f       	adc	r24, r24
 134:	99 1f       	adc	r25, r25
 136:	31 50       	subi	r19, 0x01	; 1
 138:	d1 f7       	brne	.-12     	; 0x12e <mulacc+0x2a>
 13a:	62 0f       	add	r22, r18
 13c:	71 1d       	adc	r23, r1
 13e:	81 1d       	adc	r24, r1
 140:	91 1d       	adc	r25, r1
 142:	08 95       	ret

00000144 <skip_spaces>:
 144:	0f 93       	push	r16
 146:	1f 93       	push	r17
 148:	cf 93       	push	r28
 14a:	df 93       	push	r29
 14c:	8c 01       	movw	r16, r24
 14e:	c8 01       	movw	r24, r16
 150:	0e 94 dc 06 	call	0xdb8	; 0xdb8 <fgetc>
 154:	ec 01       	movw	r28, r24
 156:	97 fd       	sbrc	r25, 7
 158:	08 c0       	rjmp	.+16     	; 0x16a <skip_spaces+0x26>
 15a:	0e 94 c1 06 	call	0xd82	; 0xd82 <isspace>
 15e:	89 2b       	or	r24, r25
 160:	b1 f7       	brne	.-20     	; 0x14e <skip_spaces+0xa>
 162:	b8 01       	movw	r22, r16
 164:	ce 01       	movw	r24, r28
 166:	0e 94 1a 07 	call	0xe34	; 0xe34 <ungetc>
 16a:	ce 01       	movw	r24, r28
 16c:	df 91       	pop	r29
 16e:	cf 91       	pop	r28
 170:	1f 91       	pop	r17
 172:	0f 91       	pop	r16
 174:	08 95       	ret

00000176 <conv_int>:
 176:	6f 92       	push	r6
 178:	7f 92       	push	r7
 17a:	9f 92       	push	r9
 17c:	af 92       	push	r10
 17e:	bf 92       	push	r11
 180:	cf 92       	push	r12
 182:	df 92       	push	r13
 184:	ef 92       	push	r14
 186:	ff 92       	push	r15
 188:	0f 93       	push	r16
 18a:	1f 93       	push	r17
 18c:	cf 93       	push	r28
 18e:	df 93       	push	r29
 190:	1f 92       	push	r1
 192:	cd b7       	in	r28, 0x3d	; 61
 194:	de b7       	in	r29, 0x3e	; 62
 196:	8c 01       	movw	r16, r24
 198:	3b 01       	movw	r6, r22
 19a:	5a 01       	movw	r10, r20
 19c:	29 83       	std	Y+1, r18	; 0x01
 19e:	0e 94 dc 06 	call	0xdb8	; 0xdb8 <fgetc>
 1a2:	ac 01       	movw	r20, r24
 1a4:	55 27       	eor	r21, r21
 1a6:	29 81       	ldd	r18, Y+1	; 0x01
 1a8:	4b 32       	cpi	r20, 0x2B	; 43
 1aa:	51 05       	cpc	r21, r1
 1ac:	21 f0       	breq	.+8      	; 0x1b6 <conv_int+0x40>
 1ae:	4d 32       	cpi	r20, 0x2D	; 45
 1b0:	51 05       	cpc	r21, r1
 1b2:	81 f4       	brne	.+32     	; 0x1d4 <conv_int+0x5e>
 1b4:	20 68       	ori	r18, 0x80	; 128
 1b6:	31 e0       	ldi	r19, 0x01	; 1
 1b8:	63 1a       	sub	r6, r19
 1ba:	71 08       	sbc	r7, r1
 1bc:	61 14       	cp	r6, r1
 1be:	71 04       	cpc	r7, r1
 1c0:	11 f4       	brne	.+4      	; 0x1c6 <conv_int+0x50>
 1c2:	80 e0       	ldi	r24, 0x00	; 0
 1c4:	7f c0       	rjmp	.+254    	; 0x2c4 <conv_int+0x14e>
 1c6:	c8 01       	movw	r24, r16
 1c8:	29 83       	std	Y+1, r18	; 0x01
 1ca:	0e 94 dc 06 	call	0xdb8	; 0xdb8 <fgetc>
 1ce:	29 81       	ldd	r18, Y+1	; 0x01
 1d0:	97 fd       	sbrc	r25, 7
 1d2:	f7 cf       	rjmp	.-18     	; 0x1c2 <conv_int+0x4c>
 1d4:	e2 2f       	mov	r30, r18
 1d6:	ed 7f       	andi	r30, 0xFD	; 253
 1d8:	9e 2e       	mov	r9, r30
 1da:	32 2f       	mov	r19, r18
 1dc:	30 73       	andi	r19, 0x30	; 48
 1de:	79 f5       	brne	.+94     	; 0x23e <conv_int+0xc8>
 1e0:	80 33       	cpi	r24, 0x30	; 48
 1e2:	69 f5       	brne	.+90     	; 0x23e <conv_int+0xc8>
 1e4:	73 01       	movw	r14, r6
 1e6:	f1 e0       	ldi	r31, 0x01	; 1
 1e8:	ef 1a       	sub	r14, r31
 1ea:	f1 08       	sbc	r15, r1
 1ec:	e1 14       	cp	r14, r1
 1ee:	f1 04       	cpc	r15, r1
 1f0:	09 f4       	brne	.+2      	; 0x1f4 <conv_int+0x7e>
 1f2:	54 c0       	rjmp	.+168    	; 0x29c <conv_int+0x126>
 1f4:	c8 01       	movw	r24, r16
 1f6:	29 83       	std	Y+1, r18	; 0x01
 1f8:	0e 94 dc 06 	call	0xdb8	; 0xdb8 <fgetc>
 1fc:	29 81       	ldd	r18, Y+1	; 0x01
 1fe:	97 fd       	sbrc	r25, 7
 200:	4d c0       	rjmp	.+154    	; 0x29c <conv_int+0x126>
 202:	38 2f       	mov	r19, r24
 204:	3f 7d       	andi	r19, 0xDF	; 223
 206:	38 35       	cpi	r19, 0x58	; 88
 208:	81 f4       	brne	.+32     	; 0x22a <conv_int+0xb4>
 20a:	29 2d       	mov	r18, r9
 20c:	22 64       	ori	r18, 0x42	; 66
 20e:	92 2e       	mov	r9, r18
 210:	32 e0       	ldi	r19, 0x02	; 2
 212:	63 1a       	sub	r6, r19
 214:	71 08       	sbc	r7, r1
 216:	61 14       	cp	r6, r1
 218:	71 04       	cpc	r7, r1
 21a:	09 f4       	brne	.+2      	; 0x21e <conv_int+0xa8>
 21c:	3f c0       	rjmp	.+126    	; 0x29c <conv_int+0x126>
 21e:	c8 01       	movw	r24, r16
 220:	0e 94 dc 06 	call	0xdb8	; 0xdb8 <fgetc>
 224:	97 ff       	sbrs	r25, 7
 226:	0b c0       	rjmp	.+22     	; 0x23e <conv_int+0xc8>
 228:	39 c0       	rjmp	.+114    	; 0x29c <conv_int+0x126>
 22a:	26 ff       	sbrs	r18, 6
 22c:	04 c0       	rjmp	.+8      	; 0x236 <conv_int+0xc0>
 22e:	e9 2d       	mov	r30, r9
 230:	e2 60       	ori	r30, 0x02	; 2
 232:	9e 2e       	mov	r9, r30
 234:	03 c0       	rjmp	.+6      	; 0x23c <conv_int+0xc6>
 236:	f9 2d       	mov	r31, r9
 238:	f2 61       	ori	r31, 0x12	; 18
 23a:	9f 2e       	mov	r9, r31
 23c:	37 01       	movw	r6, r14
 23e:	c1 2c       	mov	r12, r1
 240:	d1 2c       	mov	r13, r1
 242:	76 01       	movw	r14, r12
 244:	20 ed       	ldi	r18, 0xD0	; 208
 246:	28 0f       	add	r18, r24
 248:	28 30       	cpi	r18, 0x08	; 8
 24a:	80 f0       	brcs	.+32     	; 0x26c <conv_int+0xf6>
 24c:	94 fe       	sbrs	r9, 4
 24e:	04 c0       	rjmp	.+8      	; 0x258 <conv_int+0xe2>
 250:	b8 01       	movw	r22, r16
 252:	0e 94 1a 07 	call	0xe34	; 0xe34 <ungetc>
 256:	1f c0       	rjmp	.+62     	; 0x296 <conv_int+0x120>
 258:	2a 30       	cpi	r18, 0x0A	; 10
 25a:	40 f0       	brcs	.+16     	; 0x26c <conv_int+0xf6>
 25c:	96 fe       	sbrs	r9, 6
 25e:	f8 cf       	rjmp	.-16     	; 0x250 <conv_int+0xda>
 260:	2f 7d       	andi	r18, 0xDF	; 223
 262:	3f ee       	ldi	r19, 0xEF	; 239
 264:	32 0f       	add	r19, r18
 266:	36 30       	cpi	r19, 0x06	; 6
 268:	98 f7       	brcc	.-26     	; 0x250 <conv_int+0xda>
 26a:	27 50       	subi	r18, 0x07	; 7
 26c:	49 2d       	mov	r20, r9
 26e:	c7 01       	movw	r24, r14
 270:	b6 01       	movw	r22, r12
 272:	0e 94 82 00 	call	0x104	; 0x104 <mulacc>
 276:	6b 01       	movw	r12, r22
 278:	7c 01       	movw	r14, r24
 27a:	29 2d       	mov	r18, r9
 27c:	22 60       	ori	r18, 0x02	; 2
 27e:	92 2e       	mov	r9, r18
 280:	31 e0       	ldi	r19, 0x01	; 1
 282:	63 1a       	sub	r6, r19
 284:	71 08       	sbc	r7, r1
 286:	61 14       	cp	r6, r1
 288:	71 04       	cpc	r7, r1
 28a:	59 f0       	breq	.+22     	; 0x2a2 <conv_int+0x12c>
 28c:	c8 01       	movw	r24, r16
 28e:	0e 94 dc 06 	call	0xdb8	; 0xdb8 <fgetc>
 292:	97 ff       	sbrs	r25, 7
 294:	d7 cf       	rjmp	.-82     	; 0x244 <conv_int+0xce>
 296:	91 fc       	sbrc	r9, 1
 298:	04 c0       	rjmp	.+8      	; 0x2a2 <conv_int+0x12c>
 29a:	93 cf       	rjmp	.-218    	; 0x1c2 <conv_int+0x4c>
 29c:	c1 2c       	mov	r12, r1
 29e:	d1 2c       	mov	r13, r1
 2a0:	76 01       	movw	r14, r12
 2a2:	97 fe       	sbrs	r9, 7
 2a4:	08 c0       	rjmp	.+16     	; 0x2b6 <conv_int+0x140>
 2a6:	f0 94       	com	r15
 2a8:	e0 94       	com	r14
 2aa:	d0 94       	com	r13
 2ac:	c0 94       	com	r12
 2ae:	c1 1c       	adc	r12, r1
 2b0:	d1 1c       	adc	r13, r1
 2b2:	e1 1c       	adc	r14, r1
 2b4:	f1 1c       	adc	r15, r1
 2b6:	29 2d       	mov	r18, r9
 2b8:	b7 01       	movw	r22, r14
 2ba:	a6 01       	movw	r20, r12
 2bc:	c5 01       	movw	r24, r10
 2be:	0e 94 76 00 	call	0xec	; 0xec <putval>
 2c2:	81 e0       	ldi	r24, 0x01	; 1
 2c4:	0f 90       	pop	r0
 2c6:	df 91       	pop	r29
 2c8:	cf 91       	pop	r28
 2ca:	1f 91       	pop	r17
 2cc:	0f 91       	pop	r16
 2ce:	ff 90       	pop	r15
 2d0:	ef 90       	pop	r14
 2d2:	df 90       	pop	r13
 2d4:	cf 90       	pop	r12
 2d6:	bf 90       	pop	r11
 2d8:	af 90       	pop	r10
 2da:	9f 90       	pop	r9
 2dc:	7f 90       	pop	r7
 2de:	6f 90       	pop	r6
 2e0:	08 95       	ret

000002e2 <conv_brk>:
 2e2:	a0 e2       	ldi	r26, 0x20	; 32
 2e4:	b0 e0       	ldi	r27, 0x00	; 0
 2e6:	e7 e7       	ldi	r30, 0x77	; 119
 2e8:	f1 e0       	ldi	r31, 0x01	; 1
 2ea:	0c 94 8c 06 	jmp	0xd18	; 0xd18 <__prologue_saves__+0x4>
 2ee:	5c 01       	movw	r10, r24
 2f0:	4b 01       	movw	r8, r22
 2f2:	7a 01       	movw	r14, r20
 2f4:	8e 01       	movw	r16, r28
 2f6:	0f 5f       	subi	r16, 0xFF	; 255
 2f8:	1f 4f       	sbci	r17, 0xFF	; 255
 2fa:	68 01       	movw	r12, r16
 2fc:	80 e2       	ldi	r24, 0x20	; 32
 2fe:	f8 01       	movw	r30, r16
 300:	11 92       	st	Z+, r1
 302:	8a 95       	dec	r24
 304:	e9 f7       	brne	.-6      	; 0x300 <conv_brk+0x1e>
 306:	f5 01       	movw	r30, r10
 308:	63 80       	ldd	r6, Z+3	; 0x03
 30a:	80 e0       	ldi	r24, 0x00	; 0
 30c:	90 e0       	ldi	r25, 0x00	; 0
 30e:	71 2c       	mov	r7, r1
 310:	41 2c       	mov	r4, r1
 312:	b0 e0       	ldi	r27, 0x00	; 0
 314:	41 e0       	ldi	r20, 0x01	; 1
 316:	50 e0       	ldi	r21, 0x00	; 0
 318:	f9 01       	movw	r30, r18
 31a:	63 fc       	sbrc	r6, 3
 31c:	55 90       	lpm	r5, Z+
 31e:	63 fe       	sbrs	r6, 3
 320:	51 90       	ld	r5, Z+
 322:	8f 01       	movw	r16, r30
 324:	a5 2d       	mov	r26, r5
 326:	9f 01       	movw	r18, r30
 328:	51 10       	cpse	r5, r1
 32a:	03 c0       	rjmp	.+6      	; 0x332 <conv_brk+0x50>
 32c:	80 e0       	ldi	r24, 0x00	; 0
 32e:	90 e0       	ldi	r25, 0x00	; 0
 330:	7f c0       	rjmp	.+254    	; 0x430 <conv_brk+0x14e>
 332:	fe e5       	ldi	r31, 0x5E	; 94
 334:	5f 12       	cpse	r5, r31
 336:	02 c0       	rjmp	.+4      	; 0x33c <conv_brk+0x5a>
 338:	00 97       	sbiw	r24, 0x00	; 0
 33a:	61 f1       	breq	.+88     	; 0x394 <conv_brk+0xb2>
 33c:	6b 2f       	mov	r22, r27
 33e:	70 e0       	ldi	r23, 0x00	; 0
 340:	68 17       	cp	r22, r24
 342:	79 07       	cpc	r23, r25
 344:	4c f4       	brge	.+18     	; 0x358 <conv_brk+0x76>
 346:	6d e5       	ldi	r22, 0x5D	; 93
 348:	56 16       	cp	r5, r22
 34a:	61 f1       	breq	.+88     	; 0x3a4 <conv_brk+0xc2>
 34c:	ed e2       	ldi	r30, 0x2D	; 45
 34e:	5e 12       	cpse	r5, r30
 350:	03 c0       	rjmp	.+6      	; 0x358 <conv_brk+0x76>
 352:	44 20       	and	r4, r4
 354:	09 f1       	breq	.+66     	; 0x398 <conv_brk+0xb6>
 356:	03 c0       	rjmp	.+6      	; 0x35e <conv_brk+0x7c>
 358:	41 10       	cpse	r4, r1
 35a:	01 c0       	rjmp	.+2      	; 0x35e <conv_brk+0x7c>
 35c:	75 2c       	mov	r7, r5
 35e:	6a 2f       	mov	r22, r26
 360:	66 95       	lsr	r22
 362:	66 95       	lsr	r22
 364:	66 95       	lsr	r22
 366:	f6 01       	movw	r30, r12
 368:	e6 0f       	add	r30, r22
 36a:	f1 1d       	adc	r31, r1
 36c:	6a 2f       	mov	r22, r26
 36e:	67 70       	andi	r22, 0x07	; 7
 370:	8a 01       	movw	r16, r20
 372:	02 c0       	rjmp	.+4      	; 0x378 <conv_brk+0x96>
 374:	00 0f       	add	r16, r16
 376:	11 1f       	adc	r17, r17
 378:	6a 95       	dec	r22
 37a:	e2 f7       	brpl	.-8      	; 0x374 <conv_brk+0x92>
 37c:	b8 01       	movw	r22, r16
 37e:	70 81       	ld	r23, Z
 380:	76 2b       	or	r23, r22
 382:	70 83       	st	Z, r23
 384:	a7 15       	cp	r26, r7
 386:	59 f0       	breq	.+22     	; 0x39e <conv_brk+0xbc>
 388:	a7 15       	cp	r26, r7
 38a:	10 f4       	brcc	.+4      	; 0x390 <conv_brk+0xae>
 38c:	af 5f       	subi	r26, 0xFF	; 255
 38e:	e7 cf       	rjmp	.-50     	; 0x35e <conv_brk+0x7c>
 390:	a1 50       	subi	r26, 0x01	; 1
 392:	e5 cf       	rjmp	.-54     	; 0x35e <conv_brk+0x7c>
 394:	b1 e0       	ldi	r27, 0x01	; 1
 396:	04 c0       	rjmp	.+8      	; 0x3a0 <conv_brk+0xbe>
 398:	44 24       	eor	r4, r4
 39a:	43 94       	inc	r4
 39c:	01 c0       	rjmp	.+2      	; 0x3a0 <conv_brk+0xbe>
 39e:	41 2c       	mov	r4, r1
 3a0:	01 96       	adiw	r24, 0x01	; 1
 3a2:	ba cf       	rjmp	.-140    	; 0x318 <conv_brk+0x36>
 3a4:	44 20       	and	r4, r4
 3a6:	19 f0       	breq	.+6      	; 0x3ae <conv_brk+0xcc>
 3a8:	8e 81       	ldd	r24, Y+6	; 0x06
 3aa:	80 62       	ori	r24, 0x20	; 32
 3ac:	8e 83       	std	Y+6, r24	; 0x06
 3ae:	b1 11       	cpse	r27, r1
 3b0:	03 c0       	rjmp	.+6      	; 0x3b8 <conv_brk+0xd6>
 3b2:	77 24       	eor	r7, r7
 3b4:	73 94       	inc	r7
 3b6:	19 c0       	rjmp	.+50     	; 0x3ea <conv_brk+0x108>
 3b8:	f6 01       	movw	r30, r12
 3ba:	ce 01       	movw	r24, r28
 3bc:	81 96       	adiw	r24, 0x21	; 33
 3be:	20 81       	ld	r18, Z
 3c0:	20 95       	com	r18
 3c2:	21 93       	st	Z+, r18
 3c4:	e8 17       	cp	r30, r24
 3c6:	f9 07       	cpc	r31, r25
 3c8:	d1 f7       	brne	.-12     	; 0x3be <conv_brk+0xdc>
 3ca:	f3 cf       	rjmp	.-26     	; 0x3b2 <conv_brk+0xd0>
 3cc:	e1 14       	cp	r14, r1
 3ce:	f1 04       	cpc	r15, r1
 3d0:	29 f0       	breq	.+10     	; 0x3dc <conv_brk+0xfa>
 3d2:	f7 01       	movw	r30, r14
 3d4:	80 83       	st	Z, r24
 3d6:	c7 01       	movw	r24, r14
 3d8:	01 96       	adiw	r24, 0x01	; 1
 3da:	7c 01       	movw	r14, r24
 3dc:	91 e0       	ldi	r25, 0x01	; 1
 3de:	89 1a       	sub	r8, r25
 3e0:	91 08       	sbc	r9, r1
 3e2:	81 14       	cp	r8, r1
 3e4:	91 04       	cpc	r9, r1
 3e6:	f1 f0       	breq	.+60     	; 0x424 <conv_brk+0x142>
 3e8:	71 2c       	mov	r7, r1
 3ea:	c5 01       	movw	r24, r10
 3ec:	0e 94 dc 06 	call	0xdb8	; 0xdb8 <fgetc>
 3f0:	97 fd       	sbrc	r25, 7
 3f2:	16 c0       	rjmp	.+44     	; 0x420 <conv_brk+0x13e>
 3f4:	28 2f       	mov	r18, r24
 3f6:	26 95       	lsr	r18
 3f8:	26 95       	lsr	r18
 3fa:	26 95       	lsr	r18
 3fc:	f6 01       	movw	r30, r12
 3fe:	e2 0f       	add	r30, r18
 400:	f1 1d       	adc	r31, r1
 402:	20 81       	ld	r18, Z
 404:	30 e0       	ldi	r19, 0x00	; 0
 406:	ac 01       	movw	r20, r24
 408:	47 70       	andi	r20, 0x07	; 7
 40a:	55 27       	eor	r21, r21
 40c:	02 c0       	rjmp	.+4      	; 0x412 <conv_brk+0x130>
 40e:	35 95       	asr	r19
 410:	27 95       	ror	r18
 412:	4a 95       	dec	r20
 414:	e2 f7       	brpl	.-8      	; 0x40e <conv_brk+0x12c>
 416:	20 fd       	sbrc	r18, 0
 418:	d9 cf       	rjmp	.-78     	; 0x3cc <conv_brk+0xea>
 41a:	b5 01       	movw	r22, r10
 41c:	0e 94 1a 07 	call	0xe34	; 0xe34 <ungetc>
 420:	71 10       	cpse	r7, r1
 422:	84 cf       	rjmp	.-248    	; 0x32c <conv_brk+0x4a>
 424:	e1 14       	cp	r14, r1
 426:	f1 04       	cpc	r15, r1
 428:	11 f0       	breq	.+4      	; 0x42e <conv_brk+0x14c>
 42a:	f7 01       	movw	r30, r14
 42c:	10 82       	st	Z, r1
 42e:	c8 01       	movw	r24, r16
 430:	a0 96       	adiw	r28, 0x20	; 32
 432:	e0 e1       	ldi	r30, 0x10	; 16
 434:	0c 94 a8 06 	jmp	0xd50	; 0xd50 <__epilogue_restores__+0x4>

00000438 <conv_flt>:
 438:	2f 92       	push	r2
 43a:	3f 92       	push	r3
 43c:	4f 92       	push	r4
 43e:	5f 92       	push	r5
 440:	6f 92       	push	r6
 442:	7f 92       	push	r7
 444:	9f 92       	push	r9
 446:	af 92       	push	r10
 448:	bf 92       	push	r11
 44a:	cf 92       	push	r12
 44c:	df 92       	push	r13
 44e:	ef 92       	push	r14
 450:	ff 92       	push	r15
 452:	0f 93       	push	r16
 454:	1f 93       	push	r17
 456:	cf 93       	push	r28
 458:	df 93       	push	r29
 45a:	00 d0       	rcall	.+0      	; 0x45c <conv_flt+0x24>
 45c:	00 d0       	rcall	.+0      	; 0x45e <conv_flt+0x26>
 45e:	00 d0       	rcall	.+0      	; 0x460 <conv_flt+0x28>
 460:	cd b7       	in	r28, 0x3d	; 61
 462:	de b7       	in	r29, 0x3e	; 62
 464:	6c 01       	movw	r12, r24
 466:	8b 01       	movw	r16, r22
 468:	1a 01       	movw	r2, r20
 46a:	0e 94 dc 06 	call	0xdb8	; 0xdb8 <fgetc>
 46e:	9e 83       	std	Y+6, r25	; 0x06
 470:	8d 83       	std	Y+5, r24	; 0x05
 472:	99 27       	eor	r25, r25
 474:	8b 32       	cpi	r24, 0x2B	; 43
 476:	91 05       	cpc	r25, r1
 478:	29 f0       	breq	.+10     	; 0x484 <conv_flt+0x4c>
 47a:	8d 97       	sbiw	r24, 0x2d	; 45
 47c:	99 f4       	brne	.+38     	; 0x4a4 <conv_flt+0x6c>
 47e:	80 e8       	ldi	r24, 0x80	; 128
 480:	98 2e       	mov	r9, r24
 482:	01 c0       	rjmp	.+2      	; 0x486 <conv_flt+0x4e>
 484:	91 2c       	mov	r9, r1
 486:	01 50       	subi	r16, 0x01	; 1
 488:	11 09       	sbc	r17, r1
 48a:	01 15       	cp	r16, r1
 48c:	11 05       	cpc	r17, r1
 48e:	11 f4       	brne	.+4      	; 0x494 <conv_flt+0x5c>
 490:	80 e0       	ldi	r24, 0x00	; 0
 492:	36 c1       	rjmp	.+620    	; 0x700 <conv_flt+0x2c8>
 494:	c6 01       	movw	r24, r12
 496:	0e 94 dc 06 	call	0xdb8	; 0xdb8 <fgetc>
 49a:	9e 83       	std	Y+6, r25	; 0x06
 49c:	8d 83       	std	Y+5, r24	; 0x05
 49e:	97 ff       	sbrs	r25, 7
 4a0:	02 c0       	rjmp	.+4      	; 0x4a6 <conv_flt+0x6e>
 4a2:	f6 cf       	rjmp	.-20     	; 0x490 <conv_flt+0x58>
 4a4:	91 2c       	mov	r9, r1
 4a6:	8d 81       	ldd	r24, Y+5	; 0x05
 4a8:	9e 81       	ldd	r25, Y+6	; 0x06
 4aa:	0e 94 c9 06 	call	0xd92	; 0xd92 <tolower>
 4ae:	89 36       	cpi	r24, 0x69	; 105
 4b0:	91 05       	cpc	r25, r1
 4b2:	41 f0       	breq	.+16     	; 0x4c4 <conv_flt+0x8c>
 4b4:	8e 36       	cpi	r24, 0x6E	; 110
 4b6:	91 05       	cpc	r25, r1
 4b8:	d9 f5       	brne	.+118    	; 0x530 <conv_flt+0xf8>
 4ba:	b6 e6       	ldi	r27, 0x66	; 102
 4bc:	6b 2e       	mov	r6, r27
 4be:	b0 e0       	ldi	r27, 0x00	; 0
 4c0:	7b 2e       	mov	r7, r27
 4c2:	04 c0       	rjmp	.+8      	; 0x4cc <conv_flt+0x94>
 4c4:	a9 e6       	ldi	r26, 0x69	; 105
 4c6:	6a 2e       	mov	r6, r26
 4c8:	a0 e0       	ldi	r26, 0x00	; 0
 4ca:	7a 2e       	mov	r7, r26
 4cc:	8f ef       	ldi	r24, 0xFF	; 255
 4ce:	68 1a       	sub	r6, r24
 4d0:	78 0a       	sbc	r7, r24
 4d2:	f3 01       	movw	r30, r6
 4d4:	31 97       	sbiw	r30, 0x01	; 1
 4d6:	b4 90       	lpm	r11, Z
 4d8:	bb 20       	and	r11, r11
 4da:	f1 f0       	breq	.+60     	; 0x518 <conv_flt+0xe0>
 4dc:	01 50       	subi	r16, 0x01	; 1
 4de:	11 09       	sbc	r17, r1
 4e0:	01 15       	cp	r16, r1
 4e2:	11 05       	cpc	r17, r1
 4e4:	71 f0       	breq	.+28     	; 0x502 <conv_flt+0xca>
 4e6:	c6 01       	movw	r24, r12
 4e8:	0e 94 dc 06 	call	0xdb8	; 0xdb8 <fgetc>
 4ec:	7c 01       	movw	r14, r24
 4ee:	97 fd       	sbrc	r25, 7
 4f0:	08 c0       	rjmp	.+16     	; 0x502 <conv_flt+0xca>
 4f2:	0e 94 c9 06 	call	0xd92	; 0xd92 <tolower>
 4f6:	b8 16       	cp	r11, r24
 4f8:	49 f3       	breq	.-46     	; 0x4cc <conv_flt+0x94>
 4fa:	b6 01       	movw	r22, r12
 4fc:	c7 01       	movw	r24, r14
 4fe:	0e 94 1a 07 	call	0xe34	; 0xe34 <ungetc>
 502:	2c e6       	ldi	r18, 0x6C	; 108
 504:	62 16       	cp	r6, r18
 506:	20 e0       	ldi	r18, 0x00	; 0
 508:	72 06       	cpc	r7, r18
 50a:	09 f0       	breq	.+2      	; 0x50e <conv_flt+0xd6>
 50c:	c1 cf       	rjmp	.-126    	; 0x490 <conv_flt+0x58>
 50e:	80 e0       	ldi	r24, 0x00	; 0
 510:	90 e0       	ldi	r25, 0x00	; 0
 512:	a0 e8       	ldi	r26, 0x80	; 128
 514:	bf e7       	ldi	r27, 0x7F	; 127
 516:	09 c0       	rjmp	.+18     	; 0x52a <conv_flt+0xf2>
 518:	99 e6       	ldi	r25, 0x69	; 105
 51a:	69 16       	cp	r6, r25
 51c:	90 e0       	ldi	r25, 0x00	; 0
 51e:	79 06       	cpc	r7, r25
 520:	b1 f7       	brne	.-20     	; 0x50e <conv_flt+0xd6>
 522:	80 e0       	ldi	r24, 0x00	; 0
 524:	90 e0       	ldi	r25, 0x00	; 0
 526:	a0 ec       	ldi	r26, 0xC0	; 192
 528:	bf e7       	ldi	r27, 0x7F	; 127
 52a:	bc 01       	movw	r22, r24
 52c:	cd 01       	movw	r24, r26
 52e:	d8 c0       	rjmp	.+432    	; 0x6e0 <conv_flt+0x2a8>
 530:	41 2c       	mov	r4, r1
 532:	51 2c       	mov	r5, r1
 534:	32 01       	movw	r6, r4
 536:	e1 2c       	mov	r14, r1
 538:	f1 2c       	mov	r15, r1
 53a:	2d 81       	ldd	r18, Y+5	; 0x05
 53c:	20 53       	subi	r18, 0x30	; 48
 53e:	2a 30       	cpi	r18, 0x0A	; 10
 540:	28 f5       	brcc	.+74     	; 0x58c <conv_flt+0x154>
 542:	e9 2d       	mov	r30, r9
 544:	e2 60       	ori	r30, 0x02	; 2
 546:	be 2e       	mov	r11, r30
 548:	89 2d       	mov	r24, r9
 54a:	88 70       	andi	r24, 0x08	; 8
 54c:	92 fe       	sbrs	r9, 2
 54e:	06 c0       	rjmp	.+12     	; 0x55c <conv_flt+0x124>
 550:	81 11       	cpse	r24, r1
 552:	23 c0       	rjmp	.+70     	; 0x59a <conv_flt+0x162>
 554:	ff ef       	ldi	r31, 0xFF	; 255
 556:	ef 1a       	sub	r14, r31
 558:	ff 0a       	sbc	r15, r31
 55a:	1f c0       	rjmp	.+62     	; 0x59a <conv_flt+0x162>
 55c:	88 23       	and	r24, r24
 55e:	19 f0       	breq	.+6      	; 0x566 <conv_flt+0x12e>
 560:	81 e0       	ldi	r24, 0x01	; 1
 562:	e8 1a       	sub	r14, r24
 564:	f1 08       	sbc	r15, r1
 566:	40 e2       	ldi	r20, 0x20	; 32
 568:	c3 01       	movw	r24, r6
 56a:	b2 01       	movw	r22, r4
 56c:	0e 94 82 00 	call	0x104	; 0x104 <mulacc>
 570:	2b 01       	movw	r4, r22
 572:	3c 01       	movw	r6, r24
 574:	98 e9       	ldi	r25, 0x98	; 152
 576:	49 16       	cp	r4, r25
 578:	99 e9       	ldi	r25, 0x99	; 153
 57a:	59 06       	cpc	r5, r25
 57c:	69 06       	cpc	r6, r25
 57e:	99 e1       	ldi	r25, 0x19	; 25
 580:	79 06       	cpc	r7, r25
 582:	58 f0       	brcs	.+22     	; 0x59a <conv_flt+0x162>
 584:	e9 2d       	mov	r30, r9
 586:	e6 60       	ori	r30, 0x06	; 6
 588:	be 2e       	mov	r11, r30
 58a:	07 c0       	rjmp	.+14     	; 0x59a <conv_flt+0x162>
 58c:	2e 3f       	cpi	r18, 0xFE	; 254
 58e:	a1 f4       	brne	.+40     	; 0x5b8 <conv_flt+0x180>
 590:	93 fc       	sbrc	r9, 3
 592:	12 c0       	rjmp	.+36     	; 0x5b8 <conv_flt+0x180>
 594:	f9 2d       	mov	r31, r9
 596:	f8 60       	ori	r31, 0x08	; 8
 598:	bf 2e       	mov	r11, r31
 59a:	01 50       	subi	r16, 0x01	; 1
 59c:	11 09       	sbc	r17, r1
 59e:	01 15       	cp	r16, r1
 5a0:	11 05       	cpc	r17, r1
 5a2:	49 f0       	breq	.+18     	; 0x5b6 <conv_flt+0x17e>
 5a4:	c6 01       	movw	r24, r12
 5a6:	0e 94 dc 06 	call	0xdb8	; 0xdb8 <fgetc>
 5aa:	9e 83       	std	Y+6, r25	; 0x06
 5ac:	8d 83       	std	Y+5, r24	; 0x05
 5ae:	9b 2c       	mov	r9, r11
 5b0:	97 fd       	sbrc	r25, 7
 5b2:	02 c0       	rjmp	.+4      	; 0x5b8 <conv_flt+0x180>
 5b4:	c2 cf       	rjmp	.-124    	; 0x53a <conv_flt+0x102>
 5b6:	9b 2c       	mov	r9, r11
 5b8:	91 fe       	sbrs	r9, 1
 5ba:	6a cf       	rjmp	.-300    	; 0x490 <conv_flt+0x58>
 5bc:	8d 81       	ldd	r24, Y+5	; 0x05
 5be:	8f 7d       	andi	r24, 0xDF	; 223
 5c0:	85 34       	cpi	r24, 0x45	; 69
 5c2:	09 f0       	breq	.+2      	; 0x5c6 <conv_flt+0x18e>
 5c4:	56 c0       	rjmp	.+172    	; 0x672 <conv_flt+0x23a>
 5c6:	58 01       	movw	r10, r16
 5c8:	21 e0       	ldi	r18, 0x01	; 1
 5ca:	a2 1a       	sub	r10, r18
 5cc:	b1 08       	sbc	r11, r1
 5ce:	a1 14       	cp	r10, r1
 5d0:	b1 04       	cpc	r11, r1
 5d2:	09 f4       	brne	.+2      	; 0x5d6 <conv_flt+0x19e>
 5d4:	5d cf       	rjmp	.-326    	; 0x490 <conv_flt+0x58>
 5d6:	c6 01       	movw	r24, r12
 5d8:	0e 94 dc 06 	call	0xdb8	; 0xdb8 <fgetc>
 5dc:	9e 83       	std	Y+6, r25	; 0x06
 5de:	8d 83       	std	Y+5, r24	; 0x05
 5e0:	97 fd       	sbrc	r25, 7
 5e2:	56 cf       	rjmp	.-340    	; 0x490 <conv_flt+0x58>
 5e4:	99 27       	eor	r25, r25
 5e6:	8b 32       	cpi	r24, 0x2B	; 43
 5e8:	91 05       	cpc	r25, r1
 5ea:	29 f0       	breq	.+10     	; 0x5f6 <conv_flt+0x1be>
 5ec:	8d 97       	sbiw	r24, 0x2d	; 45
 5ee:	81 f4       	brne	.+32     	; 0x610 <conv_flt+0x1d8>
 5f0:	89 2d       	mov	r24, r9
 5f2:	80 61       	ori	r24, 0x10	; 16
 5f4:	98 2e       	mov	r9, r24
 5f6:	58 01       	movw	r10, r16
 5f8:	92 e0       	ldi	r25, 0x02	; 2
 5fa:	a9 1a       	sub	r10, r25
 5fc:	b1 08       	sbc	r11, r1
 5fe:	a1 14       	cp	r10, r1
 600:	b1 04       	cpc	r11, r1
 602:	09 f4       	brne	.+2      	; 0x606 <conv_flt+0x1ce>
 604:	45 cf       	rjmp	.-374    	; 0x490 <conv_flt+0x58>
 606:	c6 01       	movw	r24, r12
 608:	0e 94 dc 06 	call	0xdb8	; 0xdb8 <fgetc>
 60c:	9e 83       	std	Y+6, r25	; 0x06
 60e:	8d 83       	std	Y+5, r24	; 0x05
 610:	8d 81       	ldd	r24, Y+5	; 0x05
 612:	9e 81       	ldd	r25, Y+6	; 0x06
 614:	c0 97       	sbiw	r24, 0x30	; 48
 616:	0a 97       	sbiw	r24, 0x0a	; 10
 618:	08 f0       	brcs	.+2      	; 0x61c <conv_flt+0x1e4>
 61a:	3a cf       	rjmp	.-396    	; 0x490 <conv_flt+0x58>
 61c:	85 01       	movw	r16, r10
 61e:	a1 2c       	mov	r10, r1
 620:	b1 2c       	mov	r11, r1
 622:	b5 01       	movw	r22, r10
 624:	88 27       	eor	r24, r24
 626:	77 fd       	sbrc	r23, 7
 628:	80 95       	com	r24
 62a:	98 2f       	mov	r25, r24
 62c:	2d 81       	ldd	r18, Y+5	; 0x05
 62e:	20 53       	subi	r18, 0x30	; 48
 630:	40 e2       	ldi	r20, 0x20	; 32
 632:	0e 94 82 00 	call	0x104	; 0x104 <mulacc>
 636:	ab 01       	movw	r20, r22
 638:	bc 01       	movw	r22, r24
 63a:	5a 01       	movw	r10, r20
 63c:	01 50       	subi	r16, 0x01	; 1
 63e:	11 09       	sbc	r17, r1
 640:	01 15       	cp	r16, r1
 642:	11 05       	cpc	r17, r1
 644:	71 f0       	breq	.+28     	; 0x662 <conv_flt+0x22a>
 646:	c6 01       	movw	r24, r12
 648:	49 83       	std	Y+1, r20	; 0x01
 64a:	5a 83       	std	Y+2, r21	; 0x02
 64c:	6b 83       	std	Y+3, r22	; 0x03
 64e:	7c 83       	std	Y+4, r23	; 0x04
 650:	0e 94 dc 06 	call	0xdb8	; 0xdb8 <fgetc>
 654:	9e 83       	std	Y+6, r25	; 0x06
 656:	8d 83       	std	Y+5, r24	; 0x05
 658:	c0 97       	sbiw	r24, 0x30	; 48
 65a:	49 81       	ldd	r20, Y+1	; 0x01
 65c:	5a 81       	ldd	r21, Y+2	; 0x02
 65e:	0a 97       	sbiw	r24, 0x0a	; 10
 660:	00 f3       	brcs	.-64     	; 0x622 <conv_flt+0x1ea>
 662:	94 fe       	sbrs	r9, 4
 664:	04 c0       	rjmp	.+8      	; 0x66e <conv_flt+0x236>
 666:	aa 24       	eor	r10, r10
 668:	bb 24       	eor	r11, r11
 66a:	a4 1a       	sub	r10, r20
 66c:	b5 0a       	sbc	r11, r21
 66e:	ea 0c       	add	r14, r10
 670:	fb 1c       	adc	r15, r11
 672:	01 2b       	or	r16, r17
 674:	41 f0       	breq	.+16     	; 0x686 <conv_flt+0x24e>
 676:	ed 81       	ldd	r30, Y+5	; 0x05
 678:	fe 81       	ldd	r31, Y+6	; 0x06
 67a:	f7 fd       	sbrc	r31, 7
 67c:	04 c0       	rjmp	.+8      	; 0x686 <conv_flt+0x24e>
 67e:	b6 01       	movw	r22, r12
 680:	cf 01       	movw	r24, r30
 682:	0e 94 1a 07 	call	0xe34	; 0xe34 <ungetc>
 686:	c3 01       	movw	r24, r6
 688:	b2 01       	movw	r22, r4
 68a:	0e 94 d0 04 	call	0x9a0	; 0x9a0 <__floatunsisf>
 68e:	f7 fe       	sbrs	r15, 7
 690:	08 c0       	rjmp	.+16     	; 0x6a2 <conv_flt+0x26a>
 692:	f1 94       	neg	r15
 694:	e1 94       	neg	r14
 696:	f1 08       	sbc	r15, r1
 698:	f5 e8       	ldi	r31, 0x85	; 133
 69a:	af 2e       	mov	r10, r31
 69c:	f0 e0       	ldi	r31, 0x00	; 0
 69e:	bf 2e       	mov	r11, r31
 6a0:	04 c0       	rjmp	.+8      	; 0x6aa <conv_flt+0x272>
 6a2:	ed e9       	ldi	r30, 0x9D	; 157
 6a4:	ae 2e       	mov	r10, r30
 6a6:	e0 e0       	ldi	r30, 0x00	; 0
 6a8:	be 2e       	mov	r11, r30
 6aa:	65 01       	movw	r12, r10
 6ac:	f8 e1       	ldi	r31, 0x18	; 24
 6ae:	cf 1a       	sub	r12, r31
 6b0:	d1 08       	sbc	r13, r1
 6b2:	00 e2       	ldi	r16, 0x20	; 32
 6b4:	10 e0       	ldi	r17, 0x00	; 0
 6b6:	e0 16       	cp	r14, r16
 6b8:	f1 06       	cpc	r15, r17
 6ba:	50 f0       	brcs	.+20     	; 0x6d0 <conv_flt+0x298>
 6bc:	f5 01       	movw	r30, r10
 6be:	25 91       	lpm	r18, Z+
 6c0:	35 91       	lpm	r19, Z+
 6c2:	45 91       	lpm	r20, Z+
 6c4:	54 91       	lpm	r21, Z
 6c6:	0e 94 0d 05 	call	0xa1a	; 0xa1a <__mulsf3>
 6ca:	e0 1a       	sub	r14, r16
 6cc:	f1 0a       	sbc	r15, r17
 6ce:	f3 cf       	rjmp	.-26     	; 0x6b6 <conv_flt+0x27e>
 6d0:	24 e0       	ldi	r18, 0x04	; 4
 6d2:	a2 1a       	sub	r10, r18
 6d4:	b1 08       	sbc	r11, r1
 6d6:	16 95       	lsr	r17
 6d8:	07 95       	ror	r16
 6da:	ac 14       	cp	r10, r12
 6dc:	bd 04       	cpc	r11, r13
 6de:	59 f7       	brne	.-42     	; 0x6b6 <conv_flt+0x27e>
 6e0:	97 fe       	sbrs	r9, 7
 6e2:	05 c0       	rjmp	.+10     	; 0x6ee <conv_flt+0x2b6>
 6e4:	dc 01       	movw	r26, r24
 6e6:	cb 01       	movw	r24, r22
 6e8:	b0 58       	subi	r27, 0x80	; 128
 6ea:	bc 01       	movw	r22, r24
 6ec:	cd 01       	movw	r24, r26
 6ee:	21 14       	cp	r2, r1
 6f0:	31 04       	cpc	r3, r1
 6f2:	29 f0       	breq	.+10     	; 0x6fe <conv_flt+0x2c6>
 6f4:	f1 01       	movw	r30, r2
 6f6:	60 83       	st	Z, r22
 6f8:	71 83       	std	Z+1, r23	; 0x01
 6fa:	82 83       	std	Z+2, r24	; 0x02
 6fc:	93 83       	std	Z+3, r25	; 0x03
 6fe:	81 e0       	ldi	r24, 0x01	; 1
 700:	26 96       	adiw	r28, 0x06	; 6
 702:	0f b6       	in	r0, 0x3f	; 63
 704:	f8 94       	cli
 706:	de bf       	out	0x3e, r29	; 62
 708:	0f be       	out	0x3f, r0	; 63
 70a:	cd bf       	out	0x3d, r28	; 61
 70c:	df 91       	pop	r29
 70e:	cf 91       	pop	r28
 710:	1f 91       	pop	r17
 712:	0f 91       	pop	r16
 714:	ff 90       	pop	r15
 716:	ef 90       	pop	r14
 718:	df 90       	pop	r13
 71a:	cf 90       	pop	r12
 71c:	bf 90       	pop	r11
 71e:	af 90       	pop	r10
 720:	9f 90       	pop	r9
 722:	7f 90       	pop	r7
 724:	6f 90       	pop	r6
 726:	5f 90       	pop	r5
 728:	4f 90       	pop	r4
 72a:	3f 90       	pop	r3
 72c:	2f 90       	pop	r2
 72e:	08 95       	ret

00000730 <vfscanf>:
 730:	a1 e0       	ldi	r26, 0x01	; 1
 732:	b0 e0       	ldi	r27, 0x00	; 0
 734:	ee e9       	ldi	r30, 0x9E	; 158
 736:	f3 e0       	ldi	r31, 0x03	; 3
 738:	0c 94 8c 06 	jmp	0xd18	; 0xd18 <__prologue_saves__+0x4>
 73c:	8c 01       	movw	r16, r24
 73e:	2b 01       	movw	r4, r22
 740:	7a 01       	movw	r14, r20
 742:	fc 01       	movw	r30, r24
 744:	17 82       	std	Z+7, r1	; 0x07
 746:	16 82       	std	Z+6, r1	; 0x06
 748:	a1 2c       	mov	r10, r1
 74a:	f8 01       	movw	r30, r16
 74c:	d3 80       	ldd	r13, Z+3	; 0x03
 74e:	f2 01       	movw	r30, r4
 750:	d3 fc       	sbrc	r13, 3
 752:	85 91       	lpm	r24, Z+
 754:	d3 fe       	sbrs	r13, 3
 756:	81 91       	ld	r24, Z+
 758:	38 2f       	mov	r19, r24
 75a:	2f 01       	movw	r4, r30
 75c:	88 23       	and	r24, r24
 75e:	09 f4       	brne	.+2      	; 0x762 <vfscanf+0x32>
 760:	16 c1       	rjmp	.+556    	; 0x98e <__stack+0x12f>
 762:	90 e0       	ldi	r25, 0x00	; 0
 764:	39 83       	std	Y+1, r19	; 0x01
 766:	0e 94 c1 06 	call	0xd82	; 0xd82 <isspace>
 76a:	39 81       	ldd	r19, Y+1	; 0x01
 76c:	89 2b       	or	r24, r25
 76e:	21 f0       	breq	.+8      	; 0x778 <vfscanf+0x48>
 770:	c8 01       	movw	r24, r16
 772:	0e 94 a2 00 	call	0x144	; 0x144 <skip_spaces>
 776:	e9 cf       	rjmp	.-46     	; 0x74a <vfscanf+0x1a>
 778:	35 32       	cpi	r19, 0x25	; 37
 77a:	41 f4       	brne	.+16     	; 0x78c <vfscanf+0x5c>
 77c:	f2 01       	movw	r30, r4
 77e:	d3 fc       	sbrc	r13, 3
 780:	35 91       	lpm	r19, Z+
 782:	d3 fe       	sbrs	r13, 3
 784:	31 91       	ld	r19, Z+
 786:	2f 01       	movw	r4, r30
 788:	35 32       	cpi	r19, 0x25	; 37
 78a:	69 f4       	brne	.+26     	; 0x7a6 <vfscanf+0x76>
 78c:	c8 01       	movw	r24, r16
 78e:	39 83       	std	Y+1, r19	; 0x01
 790:	0e 94 dc 06 	call	0xdb8	; 0xdb8 <fgetc>
 794:	39 81       	ldd	r19, Y+1	; 0x01
 796:	97 fd       	sbrc	r25, 7
 798:	f8 c0       	rjmp	.+496    	; 0x98a <__stack+0x12b>
 79a:	38 17       	cp	r19, r24
 79c:	b1 f2       	breq	.-84     	; 0x74a <vfscanf+0x1a>
 79e:	b8 01       	movw	r22, r16
 7a0:	0e 94 1a 07 	call	0xe34	; 0xe34 <ungetc>
 7a4:	f4 c0       	rjmp	.+488    	; 0x98e <__stack+0x12f>
 7a6:	3a 32       	cpi	r19, 0x2A	; 42
 7a8:	41 f4       	brne	.+16     	; 0x7ba <vfscanf+0x8a>
 7aa:	d3 fc       	sbrc	r13, 3
 7ac:	35 91       	lpm	r19, Z+
 7ae:	d3 fe       	sbrs	r13, 3
 7b0:	31 91       	ld	r19, Z+
 7b2:	2f 01       	movw	r4, r30
 7b4:	bb 24       	eor	r11, r11
 7b6:	b3 94       	inc	r11
 7b8:	01 c0       	rjmp	.+2      	; 0x7bc <vfscanf+0x8c>
 7ba:	b1 2c       	mov	r11, r1
 7bc:	81 2c       	mov	r8, r1
 7be:	91 2c       	mov	r9, r1
 7c0:	20 ed       	ldi	r18, 0xD0	; 208
 7c2:	23 0f       	add	r18, r19
 7c4:	2a 30       	cpi	r18, 0x0A	; 10
 7c6:	88 f4       	brcc	.+34     	; 0x7ea <vfscanf+0xba>
 7c8:	fb 2d       	mov	r31, r11
 7ca:	f2 60       	ori	r31, 0x02	; 2
 7cc:	bf 2e       	mov	r11, r31
 7ce:	b4 01       	movw	r22, r8
 7d0:	80 e0       	ldi	r24, 0x00	; 0
 7d2:	90 e0       	ldi	r25, 0x00	; 0
 7d4:	40 e2       	ldi	r20, 0x20	; 32
 7d6:	0e 94 82 00 	call	0x104	; 0x104 <mulacc>
 7da:	4b 01       	movw	r8, r22
 7dc:	f2 01       	movw	r30, r4
 7de:	d3 fc       	sbrc	r13, 3
 7e0:	35 91       	lpm	r19, Z+
 7e2:	d3 fe       	sbrs	r13, 3
 7e4:	31 91       	ld	r19, Z+
 7e6:	2f 01       	movw	r4, r30
 7e8:	eb cf       	rjmp	.-42     	; 0x7c0 <vfscanf+0x90>
 7ea:	b1 fe       	sbrs	r11, 1
 7ec:	04 c0       	rjmp	.+8      	; 0x7f6 <vfscanf+0xc6>
 7ee:	81 14       	cp	r8, r1
 7f0:	91 04       	cpc	r9, r1
 7f2:	21 f4       	brne	.+8      	; 0x7fc <vfscanf+0xcc>
 7f4:	cc c0       	rjmp	.+408    	; 0x98e <__stack+0x12f>
 7f6:	88 24       	eor	r8, r8
 7f8:	8a 94       	dec	r8
 7fa:	98 2c       	mov	r9, r8
 7fc:	38 36       	cpi	r19, 0x68	; 104
 7fe:	19 f0       	breq	.+6      	; 0x806 <vfscanf+0xd6>
 800:	3c 36       	cpi	r19, 0x6C	; 108
 802:	61 f0       	breq	.+24     	; 0x81c <vfscanf+0xec>
 804:	14 c0       	rjmp	.+40     	; 0x82e <vfscanf+0xfe>
 806:	f2 01       	movw	r30, r4
 808:	d3 fc       	sbrc	r13, 3
 80a:	35 91       	lpm	r19, Z+
 80c:	d3 fe       	sbrs	r13, 3
 80e:	31 91       	ld	r19, Z+
 810:	2f 01       	movw	r4, r30
 812:	38 36       	cpi	r19, 0x68	; 104
 814:	61 f4       	brne	.+24     	; 0x82e <vfscanf+0xfe>
 816:	fb 2d       	mov	r31, r11
 818:	f8 60       	ori	r31, 0x08	; 8
 81a:	bf 2e       	mov	r11, r31
 81c:	8b 2d       	mov	r24, r11
 81e:	84 60       	ori	r24, 0x04	; 4
 820:	b8 2e       	mov	r11, r24
 822:	f2 01       	movw	r30, r4
 824:	d3 fc       	sbrc	r13, 3
 826:	35 91       	lpm	r19, Z+
 828:	d3 fe       	sbrs	r13, 3
 82a:	31 91       	ld	r19, Z+
 82c:	2f 01       	movw	r4, r30
 82e:	33 23       	and	r19, r19
 830:	09 f4       	brne	.+2      	; 0x834 <vfscanf+0x104>
 832:	ad c0       	rjmp	.+346    	; 0x98e <__stack+0x12f>
 834:	63 2f       	mov	r22, r19
 836:	70 e0       	ldi	r23, 0x00	; 0
 838:	84 e5       	ldi	r24, 0x54	; 84
 83a:	90 e0       	ldi	r25, 0x00	; 0
 83c:	39 83       	std	Y+1, r19	; 0x01
 83e:	0e 94 d1 06 	call	0xda2	; 0xda2 <strchr_P>
 842:	39 81       	ldd	r19, Y+1	; 0x01
 844:	89 2b       	or	r24, r25
 846:	09 f4       	brne	.+2      	; 0x84a <vfscanf+0x11a>
 848:	a2 c0       	rjmp	.+324    	; 0x98e <__stack+0x12f>
 84a:	b0 fc       	sbrc	r11, 0
 84c:	07 c0       	rjmp	.+14     	; 0x85c <vfscanf+0x12c>
 84e:	f7 01       	movw	r30, r14
 850:	c0 80       	ld	r12, Z
 852:	d1 80       	ldd	r13, Z+1	; 0x01
 854:	c7 01       	movw	r24, r14
 856:	02 96       	adiw	r24, 0x02	; 2
 858:	7c 01       	movw	r14, r24
 85a:	02 c0       	rjmp	.+4      	; 0x860 <__stack+0x1>
 85c:	c1 2c       	mov	r12, r1
 85e:	d1 2c       	mov	r13, r1
 860:	3e 36       	cpi	r19, 0x6E	; 110
 862:	51 f4       	brne	.+20     	; 0x878 <__stack+0x19>
 864:	f8 01       	movw	r30, r16
 866:	46 81       	ldd	r20, Z+6	; 0x06
 868:	57 81       	ldd	r21, Z+7	; 0x07
 86a:	60 e0       	ldi	r22, 0x00	; 0
 86c:	70 e0       	ldi	r23, 0x00	; 0
 86e:	2b 2d       	mov	r18, r11
 870:	c6 01       	movw	r24, r12
 872:	0e 94 76 00 	call	0xec	; 0xec <putval>
 876:	69 cf       	rjmp	.-302    	; 0x74a <vfscanf+0x1a>
 878:	33 36       	cpi	r19, 0x63	; 99
 87a:	c9 f4       	brne	.+50     	; 0x8ae <__stack+0x4f>
 87c:	b1 fc       	sbrc	r11, 1
 87e:	03 c0       	rjmp	.+6      	; 0x886 <__stack+0x27>
 880:	88 24       	eor	r8, r8
 882:	83 94       	inc	r8
 884:	91 2c       	mov	r9, r1
 886:	c8 01       	movw	r24, r16
 888:	0e 94 dc 06 	call	0xdb8	; 0xdb8 <fgetc>
 88c:	97 fd       	sbrc	r25, 7
 88e:	7d c0       	rjmp	.+250    	; 0x98a <__stack+0x12b>
 890:	c1 14       	cp	r12, r1
 892:	d1 04       	cpc	r13, r1
 894:	29 f0       	breq	.+10     	; 0x8a0 <__stack+0x41>
 896:	f6 01       	movw	r30, r12
 898:	80 83       	st	Z, r24
 89a:	c6 01       	movw	r24, r12
 89c:	01 96       	adiw	r24, 0x01	; 1
 89e:	6c 01       	movw	r12, r24
 8a0:	91 e0       	ldi	r25, 0x01	; 1
 8a2:	89 1a       	sub	r8, r25
 8a4:	91 08       	sbc	r9, r1
 8a6:	81 14       	cp	r8, r1
 8a8:	91 04       	cpc	r9, r1
 8aa:	69 f7       	brne	.-38     	; 0x886 <__stack+0x27>
 8ac:	6a c0       	rjmp	.+212    	; 0x982 <__stack+0x123>
 8ae:	3b 35       	cpi	r19, 0x5B	; 91
 8b0:	59 f4       	brne	.+22     	; 0x8c8 <__stack+0x69>
 8b2:	92 01       	movw	r18, r4
 8b4:	a6 01       	movw	r20, r12
 8b6:	b4 01       	movw	r22, r8
 8b8:	c8 01       	movw	r24, r16
 8ba:	0e 94 71 01 	call	0x2e2	; 0x2e2 <conv_brk>
 8be:	2c 01       	movw	r4, r24
 8c0:	00 97       	sbiw	r24, 0x00	; 0
 8c2:	09 f0       	breq	.+2      	; 0x8c6 <__stack+0x67>
 8c4:	5e c0       	rjmp	.+188    	; 0x982 <__stack+0x123>
 8c6:	58 c0       	rjmp	.+176    	; 0x978 <__stack+0x119>
 8c8:	c8 01       	movw	r24, r16
 8ca:	39 83       	std	Y+1, r19	; 0x01
 8cc:	0e 94 a2 00 	call	0x144	; 0x144 <skip_spaces>
 8d0:	39 81       	ldd	r19, Y+1	; 0x01
 8d2:	97 fd       	sbrc	r25, 7
 8d4:	5a c0       	rjmp	.+180    	; 0x98a <__stack+0x12b>
 8d6:	3f 36       	cpi	r19, 0x6F	; 111
 8d8:	f1 f1       	breq	.+124    	; 0x956 <__stack+0xf7>
 8da:	40 f4       	brcc	.+16     	; 0x8ec <__stack+0x8d>
 8dc:	34 36       	cpi	r19, 0x64	; 100
 8de:	b9 f1       	breq	.+110    	; 0x94e <__stack+0xef>
 8e0:	39 36       	cpi	r19, 0x69	; 105
 8e2:	e1 f1       	breq	.+120    	; 0x95c <__stack+0xfd>
 8e4:	38 35       	cpi	r19, 0x58	; 88
 8e6:	09 f0       	breq	.+2      	; 0x8ea <__stack+0x8b>
 8e8:	40 c0       	rjmp	.+128    	; 0x96a <__stack+0x10b>
 8ea:	2d c0       	rjmp	.+90     	; 0x946 <__stack+0xe7>
 8ec:	33 37       	cpi	r19, 0x73	; 115
 8ee:	b9 f0       	breq	.+46     	; 0x91e <__stack+0xbf>
 8f0:	18 f4       	brcc	.+6      	; 0x8f8 <__stack+0x99>
 8f2:	30 37       	cpi	r19, 0x70	; 112
 8f4:	41 f1       	breq	.+80     	; 0x946 <__stack+0xe7>
 8f6:	39 c0       	rjmp	.+114    	; 0x96a <__stack+0x10b>
 8f8:	35 37       	cpi	r19, 0x75	; 117
 8fa:	49 f1       	breq	.+82     	; 0x94e <__stack+0xef>
 8fc:	38 37       	cpi	r19, 0x78	; 120
 8fe:	19 f1       	breq	.+70     	; 0x946 <__stack+0xe7>
 900:	34 c0       	rjmp	.+104    	; 0x96a <__stack+0x10b>
 902:	c1 14       	cp	r12, r1
 904:	d1 04       	cpc	r13, r1
 906:	29 f0       	breq	.+10     	; 0x912 <__stack+0xb3>
 908:	f6 01       	movw	r30, r12
 90a:	60 82       	st	Z, r6
 90c:	c6 01       	movw	r24, r12
 90e:	01 96       	adiw	r24, 0x01	; 1
 910:	6c 01       	movw	r12, r24
 912:	91 e0       	ldi	r25, 0x01	; 1
 914:	89 1a       	sub	r8, r25
 916:	91 08       	sbc	r9, r1
 918:	81 14       	cp	r8, r1
 91a:	91 04       	cpc	r9, r1
 91c:	71 f0       	breq	.+28     	; 0x93a <__stack+0xdb>
 91e:	c8 01       	movw	r24, r16
 920:	0e 94 dc 06 	call	0xdb8	; 0xdb8 <fgetc>
 924:	3c 01       	movw	r6, r24
 926:	97 fd       	sbrc	r25, 7
 928:	08 c0       	rjmp	.+16     	; 0x93a <__stack+0xdb>
 92a:	0e 94 c1 06 	call	0xd82	; 0xd82 <isspace>
 92e:	89 2b       	or	r24, r25
 930:	41 f3       	breq	.-48     	; 0x902 <__stack+0xa3>
 932:	b8 01       	movw	r22, r16
 934:	c3 01       	movw	r24, r6
 936:	0e 94 1a 07 	call	0xe34	; 0xe34 <ungetc>
 93a:	c1 14       	cp	r12, r1
 93c:	d1 04       	cpc	r13, r1
 93e:	09 f1       	breq	.+66     	; 0x982 <__stack+0x123>
 940:	f6 01       	movw	r30, r12
 942:	10 82       	st	Z, r1
 944:	1e c0       	rjmp	.+60     	; 0x982 <__stack+0x123>
 946:	fb 2d       	mov	r31, r11
 948:	f0 64       	ori	r31, 0x40	; 64
 94a:	bf 2e       	mov	r11, r31
 94c:	07 c0       	rjmp	.+14     	; 0x95c <__stack+0xfd>
 94e:	8b 2d       	mov	r24, r11
 950:	80 62       	ori	r24, 0x20	; 32
 952:	b8 2e       	mov	r11, r24
 954:	03 c0       	rjmp	.+6      	; 0x95c <__stack+0xfd>
 956:	9b 2d       	mov	r25, r11
 958:	90 61       	ori	r25, 0x10	; 16
 95a:	b9 2e       	mov	r11, r25
 95c:	2b 2d       	mov	r18, r11
 95e:	a6 01       	movw	r20, r12
 960:	b4 01       	movw	r22, r8
 962:	c8 01       	movw	r24, r16
 964:	0e 94 bb 00 	call	0x176	; 0x176 <conv_int>
 968:	05 c0       	rjmp	.+10     	; 0x974 <__stack+0x115>
 96a:	a6 01       	movw	r20, r12
 96c:	b4 01       	movw	r22, r8
 96e:	c8 01       	movw	r24, r16
 970:	0e 94 1c 02 	call	0x438	; 0x438 <conv_flt>
 974:	81 11       	cpse	r24, r1
 976:	05 c0       	rjmp	.+10     	; 0x982 <__stack+0x123>
 978:	f8 01       	movw	r30, r16
 97a:	83 81       	ldd	r24, Z+3	; 0x03
 97c:	80 73       	andi	r24, 0x30	; 48
 97e:	29 f4       	brne	.+10     	; 0x98a <__stack+0x12b>
 980:	06 c0       	rjmp	.+12     	; 0x98e <__stack+0x12f>
 982:	b0 fc       	sbrc	r11, 0
 984:	e2 ce       	rjmp	.-572    	; 0x74a <vfscanf+0x1a>
 986:	a3 94       	inc	r10
 988:	e0 ce       	rjmp	.-576    	; 0x74a <vfscanf+0x1a>
 98a:	aa 20       	and	r10, r10
 98c:	19 f0       	breq	.+6      	; 0x994 <__stack+0x135>
 98e:	8a 2d       	mov	r24, r10
 990:	90 e0       	ldi	r25, 0x00	; 0
 992:	02 c0       	rjmp	.+4      	; 0x998 <__stack+0x139>
 994:	8f ef       	ldi	r24, 0xFF	; 255
 996:	9f ef       	ldi	r25, 0xFF	; 255
 998:	21 96       	adiw	r28, 0x01	; 1
 99a:	e0 e1       	ldi	r30, 0x10	; 16
 99c:	0c 94 a8 06 	jmp	0xd50	; 0xd50 <__epilogue_restores__+0x4>

000009a0 <__floatunsisf>:
 9a0:	e8 94       	clt
 9a2:	09 c0       	rjmp	.+18     	; 0x9b6 <__floatsisf+0x12>

000009a4 <__floatsisf>:
 9a4:	97 fb       	bst	r25, 7
 9a6:	3e f4       	brtc	.+14     	; 0x9b6 <__floatsisf+0x12>
 9a8:	90 95       	com	r25
 9aa:	80 95       	com	r24
 9ac:	70 95       	com	r23
 9ae:	61 95       	neg	r22
 9b0:	7f 4f       	sbci	r23, 0xFF	; 255
 9b2:	8f 4f       	sbci	r24, 0xFF	; 255
 9b4:	9f 4f       	sbci	r25, 0xFF	; 255
 9b6:	99 23       	and	r25, r25
 9b8:	a9 f0       	breq	.+42     	; 0x9e4 <__floatsisf+0x40>
 9ba:	f9 2f       	mov	r31, r25
 9bc:	96 e9       	ldi	r25, 0x96	; 150
 9be:	bb 27       	eor	r27, r27
 9c0:	93 95       	inc	r25
 9c2:	f6 95       	lsr	r31
 9c4:	87 95       	ror	r24
 9c6:	77 95       	ror	r23
 9c8:	67 95       	ror	r22
 9ca:	b7 95       	ror	r27
 9cc:	f1 11       	cpse	r31, r1
 9ce:	f8 cf       	rjmp	.-16     	; 0x9c0 <__floatsisf+0x1c>
 9d0:	fa f4       	brpl	.+62     	; 0xa10 <__floatsisf+0x6c>
 9d2:	bb 0f       	add	r27, r27
 9d4:	11 f4       	brne	.+4      	; 0x9da <__floatsisf+0x36>
 9d6:	60 ff       	sbrs	r22, 0
 9d8:	1b c0       	rjmp	.+54     	; 0xa10 <__floatsisf+0x6c>
 9da:	6f 5f       	subi	r22, 0xFF	; 255
 9dc:	7f 4f       	sbci	r23, 0xFF	; 255
 9de:	8f 4f       	sbci	r24, 0xFF	; 255
 9e0:	9f 4f       	sbci	r25, 0xFF	; 255
 9e2:	16 c0       	rjmp	.+44     	; 0xa10 <__floatsisf+0x6c>
 9e4:	88 23       	and	r24, r24
 9e6:	11 f0       	breq	.+4      	; 0x9ec <__floatsisf+0x48>
 9e8:	96 e9       	ldi	r25, 0x96	; 150
 9ea:	11 c0       	rjmp	.+34     	; 0xa0e <__floatsisf+0x6a>
 9ec:	77 23       	and	r23, r23
 9ee:	21 f0       	breq	.+8      	; 0x9f8 <__floatsisf+0x54>
 9f0:	9e e8       	ldi	r25, 0x8E	; 142
 9f2:	87 2f       	mov	r24, r23
 9f4:	76 2f       	mov	r23, r22
 9f6:	05 c0       	rjmp	.+10     	; 0xa02 <__floatsisf+0x5e>
 9f8:	66 23       	and	r22, r22
 9fa:	71 f0       	breq	.+28     	; 0xa18 <__floatsisf+0x74>
 9fc:	96 e8       	ldi	r25, 0x86	; 134
 9fe:	86 2f       	mov	r24, r22
 a00:	70 e0       	ldi	r23, 0x00	; 0
 a02:	60 e0       	ldi	r22, 0x00	; 0
 a04:	2a f0       	brmi	.+10     	; 0xa10 <__floatsisf+0x6c>
 a06:	9a 95       	dec	r25
 a08:	66 0f       	add	r22, r22
 a0a:	77 1f       	adc	r23, r23
 a0c:	88 1f       	adc	r24, r24
 a0e:	da f7       	brpl	.-10     	; 0xa06 <__floatsisf+0x62>
 a10:	88 0f       	add	r24, r24
 a12:	96 95       	lsr	r25
 a14:	87 95       	ror	r24
 a16:	97 f9       	bld	r25, 7
 a18:	08 95       	ret

00000a1a <__mulsf3>:
 a1a:	0b d0       	rcall	.+22     	; 0xa32 <__mulsf3x>
 a1c:	78 c0       	rjmp	.+240    	; 0xb0e <__fp_round>
 a1e:	69 d0       	rcall	.+210    	; 0xaf2 <__fp_pscA>
 a20:	28 f0       	brcs	.+10     	; 0xa2c <__mulsf3+0x12>
 a22:	6e d0       	rcall	.+220    	; 0xb00 <__fp_pscB>
 a24:	18 f0       	brcs	.+6      	; 0xa2c <__mulsf3+0x12>
 a26:	95 23       	and	r25, r21
 a28:	09 f0       	breq	.+2      	; 0xa2c <__mulsf3+0x12>
 a2a:	5a c0       	rjmp	.+180    	; 0xae0 <__fp_inf>
 a2c:	5f c0       	rjmp	.+190    	; 0xaec <__fp_nan>
 a2e:	11 24       	eor	r1, r1
 a30:	a2 c0       	rjmp	.+324    	; 0xb76 <__fp_szero>

00000a32 <__mulsf3x>:
 a32:	7e d0       	rcall	.+252    	; 0xb30 <__fp_split3>
 a34:	a0 f3       	brcs	.-24     	; 0xa1e <__mulsf3+0x4>

00000a36 <__mulsf3_pse>:
 a36:	95 9f       	mul	r25, r21
 a38:	d1 f3       	breq	.-12     	; 0xa2e <__mulsf3+0x14>
 a3a:	95 0f       	add	r25, r21
 a3c:	50 e0       	ldi	r21, 0x00	; 0
 a3e:	55 1f       	adc	r21, r21
 a40:	62 9f       	mul	r22, r18
 a42:	f0 01       	movw	r30, r0
 a44:	72 9f       	mul	r23, r18
 a46:	bb 27       	eor	r27, r27
 a48:	f0 0d       	add	r31, r0
 a4a:	b1 1d       	adc	r27, r1
 a4c:	63 9f       	mul	r22, r19
 a4e:	aa 27       	eor	r26, r26
 a50:	f0 0d       	add	r31, r0
 a52:	b1 1d       	adc	r27, r1
 a54:	aa 1f       	adc	r26, r26
 a56:	64 9f       	mul	r22, r20
 a58:	66 27       	eor	r22, r22
 a5a:	b0 0d       	add	r27, r0
 a5c:	a1 1d       	adc	r26, r1
 a5e:	66 1f       	adc	r22, r22
 a60:	82 9f       	mul	r24, r18
 a62:	22 27       	eor	r18, r18
 a64:	b0 0d       	add	r27, r0
 a66:	a1 1d       	adc	r26, r1
 a68:	62 1f       	adc	r22, r18
 a6a:	73 9f       	mul	r23, r19
 a6c:	b0 0d       	add	r27, r0
 a6e:	a1 1d       	adc	r26, r1
 a70:	62 1f       	adc	r22, r18
 a72:	83 9f       	mul	r24, r19
 a74:	a0 0d       	add	r26, r0
 a76:	61 1d       	adc	r22, r1
 a78:	22 1f       	adc	r18, r18
 a7a:	74 9f       	mul	r23, r20
 a7c:	33 27       	eor	r19, r19
 a7e:	a0 0d       	add	r26, r0
 a80:	61 1d       	adc	r22, r1
 a82:	23 1f       	adc	r18, r19
 a84:	84 9f       	mul	r24, r20
 a86:	60 0d       	add	r22, r0
 a88:	21 1d       	adc	r18, r1
 a8a:	82 2f       	mov	r24, r18
 a8c:	76 2f       	mov	r23, r22
 a8e:	6a 2f       	mov	r22, r26
 a90:	11 24       	eor	r1, r1
 a92:	9f 57       	subi	r25, 0x7F	; 127
 a94:	50 40       	sbci	r21, 0x00	; 0
 a96:	8a f0       	brmi	.+34     	; 0xaba <__mulsf3_pse+0x84>
 a98:	e1 f0       	breq	.+56     	; 0xad2 <__mulsf3_pse+0x9c>
 a9a:	88 23       	and	r24, r24
 a9c:	4a f0       	brmi	.+18     	; 0xab0 <__mulsf3_pse+0x7a>
 a9e:	ee 0f       	add	r30, r30
 aa0:	ff 1f       	adc	r31, r31
 aa2:	bb 1f       	adc	r27, r27
 aa4:	66 1f       	adc	r22, r22
 aa6:	77 1f       	adc	r23, r23
 aa8:	88 1f       	adc	r24, r24
 aaa:	91 50       	subi	r25, 0x01	; 1
 aac:	50 40       	sbci	r21, 0x00	; 0
 aae:	a9 f7       	brne	.-22     	; 0xa9a <__mulsf3_pse+0x64>
 ab0:	9e 3f       	cpi	r25, 0xFE	; 254
 ab2:	51 05       	cpc	r21, r1
 ab4:	70 f0       	brcs	.+28     	; 0xad2 <__mulsf3_pse+0x9c>
 ab6:	14 c0       	rjmp	.+40     	; 0xae0 <__fp_inf>
 ab8:	5e c0       	rjmp	.+188    	; 0xb76 <__fp_szero>
 aba:	5f 3f       	cpi	r21, 0xFF	; 255
 abc:	ec f3       	brlt	.-6      	; 0xab8 <__mulsf3_pse+0x82>
 abe:	98 3e       	cpi	r25, 0xE8	; 232
 ac0:	dc f3       	brlt	.-10     	; 0xab8 <__mulsf3_pse+0x82>
 ac2:	86 95       	lsr	r24
 ac4:	77 95       	ror	r23
 ac6:	67 95       	ror	r22
 ac8:	b7 95       	ror	r27
 aca:	f7 95       	ror	r31
 acc:	e7 95       	ror	r30
 ace:	9f 5f       	subi	r25, 0xFF	; 255
 ad0:	c1 f7       	brne	.-16     	; 0xac2 <__mulsf3_pse+0x8c>
 ad2:	fe 2b       	or	r31, r30
 ad4:	88 0f       	add	r24, r24
 ad6:	91 1d       	adc	r25, r1
 ad8:	96 95       	lsr	r25
 ada:	87 95       	ror	r24
 adc:	97 f9       	bld	r25, 7
 ade:	08 95       	ret

00000ae0 <__fp_inf>:
 ae0:	97 f9       	bld	r25, 7
 ae2:	9f 67       	ori	r25, 0x7F	; 127
 ae4:	80 e8       	ldi	r24, 0x80	; 128
 ae6:	70 e0       	ldi	r23, 0x00	; 0
 ae8:	60 e0       	ldi	r22, 0x00	; 0
 aea:	08 95       	ret

00000aec <__fp_nan>:
 aec:	9f ef       	ldi	r25, 0xFF	; 255
 aee:	80 ec       	ldi	r24, 0xC0	; 192
 af0:	08 95       	ret

00000af2 <__fp_pscA>:
 af2:	00 24       	eor	r0, r0
 af4:	0a 94       	dec	r0
 af6:	16 16       	cp	r1, r22
 af8:	17 06       	cpc	r1, r23
 afa:	18 06       	cpc	r1, r24
 afc:	09 06       	cpc	r0, r25
 afe:	08 95       	ret

00000b00 <__fp_pscB>:
 b00:	00 24       	eor	r0, r0
 b02:	0a 94       	dec	r0
 b04:	12 16       	cp	r1, r18
 b06:	13 06       	cpc	r1, r19
 b08:	14 06       	cpc	r1, r20
 b0a:	05 06       	cpc	r0, r21
 b0c:	08 95       	ret

00000b0e <__fp_round>:
 b0e:	09 2e       	mov	r0, r25
 b10:	03 94       	inc	r0
 b12:	00 0c       	add	r0, r0
 b14:	11 f4       	brne	.+4      	; 0xb1a <__fp_round+0xc>
 b16:	88 23       	and	r24, r24
 b18:	52 f0       	brmi	.+20     	; 0xb2e <__fp_round+0x20>
 b1a:	bb 0f       	add	r27, r27
 b1c:	40 f4       	brcc	.+16     	; 0xb2e <__fp_round+0x20>
 b1e:	bf 2b       	or	r27, r31
 b20:	11 f4       	brne	.+4      	; 0xb26 <__fp_round+0x18>
 b22:	60 ff       	sbrs	r22, 0
 b24:	04 c0       	rjmp	.+8      	; 0xb2e <__fp_round+0x20>
 b26:	6f 5f       	subi	r22, 0xFF	; 255
 b28:	7f 4f       	sbci	r23, 0xFF	; 255
 b2a:	8f 4f       	sbci	r24, 0xFF	; 255
 b2c:	9f 4f       	sbci	r25, 0xFF	; 255
 b2e:	08 95       	ret

00000b30 <__fp_split3>:
 b30:	57 fd       	sbrc	r21, 7
 b32:	90 58       	subi	r25, 0x80	; 128
 b34:	44 0f       	add	r20, r20
 b36:	55 1f       	adc	r21, r21
 b38:	59 f0       	breq	.+22     	; 0xb50 <__fp_splitA+0x10>
 b3a:	5f 3f       	cpi	r21, 0xFF	; 255
 b3c:	71 f0       	breq	.+28     	; 0xb5a <__fp_splitA+0x1a>
 b3e:	47 95       	ror	r20

00000b40 <__fp_splitA>:
 b40:	88 0f       	add	r24, r24
 b42:	97 fb       	bst	r25, 7
 b44:	99 1f       	adc	r25, r25
 b46:	61 f0       	breq	.+24     	; 0xb60 <__fp_splitA+0x20>
 b48:	9f 3f       	cpi	r25, 0xFF	; 255
 b4a:	79 f0       	breq	.+30     	; 0xb6a <__fp_splitA+0x2a>
 b4c:	87 95       	ror	r24
 b4e:	08 95       	ret
 b50:	12 16       	cp	r1, r18
 b52:	13 06       	cpc	r1, r19
 b54:	14 06       	cpc	r1, r20
 b56:	55 1f       	adc	r21, r21
 b58:	f2 cf       	rjmp	.-28     	; 0xb3e <__fp_split3+0xe>
 b5a:	46 95       	lsr	r20
 b5c:	f1 df       	rcall	.-30     	; 0xb40 <__fp_splitA>
 b5e:	08 c0       	rjmp	.+16     	; 0xb70 <__fp_splitA+0x30>
 b60:	16 16       	cp	r1, r22
 b62:	17 06       	cpc	r1, r23
 b64:	18 06       	cpc	r1, r24
 b66:	99 1f       	adc	r25, r25
 b68:	f1 cf       	rjmp	.-30     	; 0xb4c <__fp_splitA+0xc>
 b6a:	86 95       	lsr	r24
 b6c:	71 05       	cpc	r23, r1
 b6e:	61 05       	cpc	r22, r1
 b70:	08 94       	sec
 b72:	08 95       	ret

00000b74 <__fp_zero>:
 b74:	e8 94       	clt

00000b76 <__fp_szero>:
 b76:	bb 27       	eor	r27, r27
 b78:	66 27       	eor	r22, r22
 b7a:	77 27       	eor	r23, r23
 b7c:	cb 01       	movw	r24, r22
 b7e:	97 f9       	bld	r25, 7
 b80:	08 95       	ret

00000b82 <lcd_write_instr>:
 b82:	da 98       	cbi	0x1b, 2	; 27
 b84:	db 9a       	sbi	0x1b, 3	; 27
 b86:	2b b3       	in	r18, 0x1b	; 27
 b88:	98 2f       	mov	r25, r24
 b8a:	90 7f       	andi	r25, 0xF0	; 240
 b8c:	2f 70       	andi	r18, 0x0F	; 15
 b8e:	92 2b       	or	r25, r18
 b90:	9b bb       	out	0x1b, r25	; 27
 b92:	34 e0       	ldi	r19, 0x04	; 4
 b94:	3a 95       	dec	r19
 b96:	f1 f7       	brne	.-4      	; 0xb94 <lcd_write_instr+0x12>
 b98:	db 98       	cbi	0x1b, 3	; 27
 b9a:	e4 e1       	ldi	r30, 0x14	; 20
 b9c:	f1 e0       	ldi	r31, 0x01	; 1
 b9e:	31 97       	sbiw	r30, 0x01	; 1
 ba0:	f1 f7       	brne	.-4      	; 0xb9e <lcd_write_instr+0x1c>
 ba2:	00 00       	nop
 ba4:	db 9a       	sbi	0x1b, 3	; 27
 ba6:	2b b3       	in	r18, 0x1b	; 27
 ba8:	f0 e1       	ldi	r31, 0x10	; 16
 baa:	8f 9f       	mul	r24, r31
 bac:	c0 01       	movw	r24, r0
 bae:	11 24       	eor	r1, r1
 bb0:	2f 70       	andi	r18, 0x0F	; 15
 bb2:	28 2b       	or	r18, r24
 bb4:	2b bb       	out	0x1b, r18	; 27
 bb6:	34 e0       	ldi	r19, 0x04	; 4
 bb8:	3a 95       	dec	r19
 bba:	f1 f7       	brne	.-4      	; 0xbb8 <lcd_write_instr+0x36>
 bbc:	db 98       	cbi	0x1b, 3	; 27
 bbe:	84 e1       	ldi	r24, 0x14	; 20
 bc0:	91 e0       	ldi	r25, 0x01	; 1
 bc2:	01 97       	sbiw	r24, 0x01	; 1
 bc4:	f1 f7       	brne	.-4      	; 0xbc2 <lcd_write_instr+0x40>
 bc6:	00 00       	nop
 bc8:	08 95       	ret

00000bca <lcd_clear>:
 bca:	81 e0       	ldi	r24, 0x01	; 1
 bcc:	0e 94 c1 05 	call	0xb82	; 0xb82 <lcd_write_instr>
 bd0:	89 e9       	ldi	r24, 0x99	; 153
 bd2:	95 e1       	ldi	r25, 0x15	; 21
 bd4:	01 97       	sbiw	r24, 0x01	; 1
 bd6:	f1 f7       	brne	.-4      	; 0xbd4 <lcd_clear+0xa>
 bd8:	00 c0       	rjmp	.+0      	; 0xbda <lcd_clear+0x10>
 bda:	08 95       	ret

00000bdc <lcdinit>:
 bdc:	8f ef       	ldi	r24, 0xFF	; 255
 bde:	8a bb       	out	0x1a, r24	; 26
 be0:	1b ba       	out	0x1b, r1	; 27
 be2:	2f ef       	ldi	r18, 0xFF	; 255
 be4:	8f ea       	ldi	r24, 0xAF	; 175
 be6:	91 e0       	ldi	r25, 0x01	; 1
 be8:	21 50       	subi	r18, 0x01	; 1
 bea:	80 40       	sbci	r24, 0x00	; 0
 bec:	90 40       	sbci	r25, 0x00	; 0
 bee:	e1 f7       	brne	.-8      	; 0xbe8 <lcdinit+0xc>
 bf0:	00 c0       	rjmp	.+0      	; 0xbf2 <lcdinit+0x16>
 bf2:	00 00       	nop
 bf4:	da 98       	cbi	0x1b, 2	; 27
 bf6:	93 e0       	ldi	r25, 0x03	; 3
 bf8:	db 9a       	sbi	0x1b, 3	; 27
 bfa:	8b b3       	in	r24, 0x1b	; 27
 bfc:	8f 70       	andi	r24, 0x0F	; 15
 bfe:	80 63       	ori	r24, 0x30	; 48
 c00:	8b bb       	out	0x1b, r24	; 27
 c02:	e4 e0       	ldi	r30, 0x04	; 4
 c04:	ea 95       	dec	r30
 c06:	f1 f7       	brne	.-4      	; 0xc04 <lcdinit+0x28>
 c08:	db 98       	cbi	0x1b, 3	; 27
 c0a:	ef ef       	ldi	r30, 0xFF	; 255
 c0c:	f5 e3       	ldi	r31, 0x35	; 53
 c0e:	31 97       	sbiw	r30, 0x01	; 1
 c10:	f1 f7       	brne	.-4      	; 0xc0e <lcdinit+0x32>
 c12:	00 c0       	rjmp	.+0      	; 0xc14 <lcdinit+0x38>
 c14:	00 00       	nop
 c16:	91 50       	subi	r25, 0x01	; 1
 c18:	79 f7       	brne	.-34     	; 0xbf8 <lcdinit+0x1c>
 c1a:	db 9a       	sbi	0x1b, 3	; 27
 c1c:	8b b3       	in	r24, 0x1b	; 27
 c1e:	8f 70       	andi	r24, 0x0F	; 15
 c20:	80 62       	ori	r24, 0x20	; 32
 c22:	8b bb       	out	0x1b, r24	; 27
 c24:	f4 e0       	ldi	r31, 0x04	; 4
 c26:	fa 95       	dec	r31
 c28:	f1 f7       	brne	.-4      	; 0xc26 <lcdinit+0x4a>
 c2a:	db 98       	cbi	0x1b, 3	; 27
 c2c:	84 e1       	ldi	r24, 0x14	; 20
 c2e:	91 e0       	ldi	r25, 0x01	; 1
 c30:	01 97       	sbiw	r24, 0x01	; 1
 c32:	f1 f7       	brne	.-4      	; 0xc30 <lcdinit+0x54>
 c34:	00 00       	nop
 c36:	88 e2       	ldi	r24, 0x28	; 40
 c38:	0e 94 c1 05 	call	0xb82	; 0xb82 <lcd_write_instr>
 c3c:	8c e0       	ldi	r24, 0x0C	; 12
 c3e:	0e 94 c1 05 	call	0xb82	; 0xb82 <lcd_write_instr>
 c42:	86 e0       	ldi	r24, 0x06	; 6
 c44:	0e 94 c1 05 	call	0xb82	; 0xb82 <lcd_write_instr>
 c48:	0c 94 e5 05 	jmp	0xbca	; 0xbca <lcd_clear>

00000c4c <lcd_write_data>:
 c4c:	da 9a       	sbi	0x1b, 2	; 27
 c4e:	db 9a       	sbi	0x1b, 3	; 27
 c50:	2b b3       	in	r18, 0x1b	; 27
 c52:	98 2f       	mov	r25, r24
 c54:	90 7f       	andi	r25, 0xF0	; 240
 c56:	2f 70       	andi	r18, 0x0F	; 15
 c58:	92 2b       	or	r25, r18
 c5a:	9b bb       	out	0x1b, r25	; 27
 c5c:	34 e0       	ldi	r19, 0x04	; 4
 c5e:	3a 95       	dec	r19
 c60:	f1 f7       	brne	.-4      	; 0xc5e <lcd_write_data+0x12>
 c62:	db 98       	cbi	0x1b, 3	; 27
 c64:	e4 e1       	ldi	r30, 0x14	; 20
 c66:	f1 e0       	ldi	r31, 0x01	; 1
 c68:	31 97       	sbiw	r30, 0x01	; 1
 c6a:	f1 f7       	brne	.-4      	; 0xc68 <lcd_write_data+0x1c>
 c6c:	00 00       	nop
 c6e:	db 9a       	sbi	0x1b, 3	; 27
 c70:	2b b3       	in	r18, 0x1b	; 27
 c72:	f0 e1       	ldi	r31, 0x10	; 16
 c74:	8f 9f       	mul	r24, r31
 c76:	c0 01       	movw	r24, r0
 c78:	11 24       	eor	r1, r1
 c7a:	2f 70       	andi	r18, 0x0F	; 15
 c7c:	28 2b       	or	r18, r24
 c7e:	2b bb       	out	0x1b, r18	; 27
 c80:	34 e0       	ldi	r19, 0x04	; 4
 c82:	3a 95       	dec	r19
 c84:	f1 f7       	brne	.-4      	; 0xc82 <lcd_write_data+0x36>
 c86:	db 98       	cbi	0x1b, 3	; 27
 c88:	84 e1       	ldi	r24, 0x14	; 20
 c8a:	91 e0       	ldi	r25, 0x01	; 1
 c8c:	01 97       	sbiw	r24, 0x01	; 1
 c8e:	f1 f7       	brne	.-4      	; 0xc8c <lcd_write_data+0x40>
 c90:	00 00       	nop
 c92:	08 95       	ret

00000c94 <lcd_set_xy>:
 c94:	60 58       	subi	r22, 0x80	; 128
 c96:	90 e4       	ldi	r25, 0x40	; 64
 c98:	89 9f       	mul	r24, r25
 c9a:	60 0d       	add	r22, r0
 c9c:	11 24       	eor	r1, r1
 c9e:	86 2f       	mov	r24, r22
 ca0:	0c 94 c1 05 	jmp	0xb82	; 0xb82 <lcd_write_instr>

00000ca4 <lcd_write_text_xy>:
 ca4:	cf 93       	push	r28
 ca6:	df 93       	push	r29
 ca8:	1f 92       	push	r1
 caa:	cd b7       	in	r28, 0x3d	; 61
 cac:	de b7       	in	r29, 0x3e	; 62
 cae:	49 83       	std	Y+1, r20	; 0x01
 cb0:	0e 94 4a 06 	call	0xc94	; 0xc94 <lcd_set_xy>
 cb4:	49 81       	ldd	r20, Y+1	; 0x01
 cb6:	84 2f       	mov	r24, r20
 cb8:	0f 90       	pop	r0
 cba:	df 91       	pop	r29
 cbc:	cf 91       	pop	r28
 cbe:	0c 94 26 06 	jmp	0xc4c	; 0xc4c <lcd_write_data>

00000cc2 <lcd_write_text_P>:
 cc2:	cf 93       	push	r28
 cc4:	df 93       	push	r29
 cc6:	fc 01       	movw	r30, r24
 cc8:	84 91       	lpm	r24, Z
 cca:	ef 01       	movw	r28, r30
 ccc:	21 96       	adiw	r28, 0x01	; 1
 cce:	88 23       	and	r24, r24
 cd0:	21 f0       	breq	.+8      	; 0xcda <lcd_write_text_P+0x18>
 cd2:	0e 94 26 06 	call	0xc4c	; 0xc4c <lcd_write_data>
 cd6:	fe 01       	movw	r30, r28
 cd8:	f7 cf       	rjmp	.-18     	; 0xcc8 <lcd_write_text_P+0x6>
 cda:	df 91       	pop	r29
 cdc:	cf 91       	pop	r28
 cde:	08 95       	ret

00000ce0 <uart_putchar>:
 ce0:	0e 94 26 06 	call	0xc4c	; 0xc4c <lcd_write_data>
 ce4:	80 e0       	ldi	r24, 0x00	; 0
 ce6:	90 e0       	ldi	r25, 0x00	; 0
 ce8:	08 95       	ret

00000cea <main>:
 cea:	80 e6       	ldi	r24, 0x60	; 96
 cec:	90 e0       	ldi	r25, 0x00	; 0
 cee:	90 93 71 00 	sts	0x0071, r25
 cf2:	80 93 70 00 	sts	0x0070, r24
 cf6:	0e 94 ee 05 	call	0xbdc	; 0xbdc <lcdinit>
 cfa:	81 ea       	ldi	r24, 0xA1	; 161
 cfc:	90 e0       	ldi	r25, 0x00	; 0
 cfe:	0e 94 61 06 	call	0xcc2	; 0xcc2 <lcd_write_text_P>
 d02:	40 e5       	ldi	r20, 0x50	; 80
 d04:	50 e0       	ldi	r21, 0x00	; 0
 d06:	67 e0       	ldi	r22, 0x07	; 7
 d08:	81 e0       	ldi	r24, 0x01	; 1
 d0a:	0e 94 52 06 	call	0xca4	; 0xca4 <lcd_write_text_xy>
 d0e:	80 e0       	ldi	r24, 0x00	; 0
 d10:	90 e0       	ldi	r25, 0x00	; 0
 d12:	08 95       	ret

00000d14 <__prologue_saves__>:
 d14:	2f 92       	push	r2
 d16:	3f 92       	push	r3
 d18:	4f 92       	push	r4
 d1a:	5f 92       	push	r5
 d1c:	6f 92       	push	r6
 d1e:	7f 92       	push	r7
 d20:	8f 92       	push	r8
 d22:	9f 92       	push	r9
 d24:	af 92       	push	r10
 d26:	bf 92       	push	r11
 d28:	cf 92       	push	r12
 d2a:	df 92       	push	r13
 d2c:	ef 92       	push	r14
 d2e:	ff 92       	push	r15
 d30:	0f 93       	push	r16
 d32:	1f 93       	push	r17
 d34:	cf 93       	push	r28
 d36:	df 93       	push	r29
 d38:	cd b7       	in	r28, 0x3d	; 61
 d3a:	de b7       	in	r29, 0x3e	; 62
 d3c:	ca 1b       	sub	r28, r26
 d3e:	db 0b       	sbc	r29, r27
 d40:	0f b6       	in	r0, 0x3f	; 63
 d42:	f8 94       	cli
 d44:	de bf       	out	0x3e, r29	; 62
 d46:	0f be       	out	0x3f, r0	; 63
 d48:	cd bf       	out	0x3d, r28	; 61
 d4a:	09 94       	ijmp

00000d4c <__epilogue_restores__>:
 d4c:	2a 88       	ldd	r2, Y+18	; 0x12
 d4e:	39 88       	ldd	r3, Y+17	; 0x11
 d50:	48 88       	ldd	r4, Y+16	; 0x10
 d52:	5f 84       	ldd	r5, Y+15	; 0x0f
 d54:	6e 84       	ldd	r6, Y+14	; 0x0e
 d56:	7d 84       	ldd	r7, Y+13	; 0x0d
 d58:	8c 84       	ldd	r8, Y+12	; 0x0c
 d5a:	9b 84       	ldd	r9, Y+11	; 0x0b
 d5c:	aa 84       	ldd	r10, Y+10	; 0x0a
 d5e:	b9 84       	ldd	r11, Y+9	; 0x09
 d60:	c8 84       	ldd	r12, Y+8	; 0x08
 d62:	df 80       	ldd	r13, Y+7	; 0x07
 d64:	ee 80       	ldd	r14, Y+6	; 0x06
 d66:	fd 80       	ldd	r15, Y+5	; 0x05
 d68:	0c 81       	ldd	r16, Y+4	; 0x04
 d6a:	1b 81       	ldd	r17, Y+3	; 0x03
 d6c:	aa 81       	ldd	r26, Y+2	; 0x02
 d6e:	b9 81       	ldd	r27, Y+1	; 0x01
 d70:	ce 0f       	add	r28, r30
 d72:	d1 1d       	adc	r29, r1
 d74:	0f b6       	in	r0, 0x3f	; 63
 d76:	f8 94       	cli
 d78:	de bf       	out	0x3e, r29	; 62
 d7a:	0f be       	out	0x3f, r0	; 63
 d7c:	cd bf       	out	0x3d, r28	; 61
 d7e:	ed 01       	movw	r28, r26
 d80:	08 95       	ret

00000d82 <isspace>:
 d82:	91 11       	cpse	r25, r1
 d84:	70 c0       	rjmp	.+224    	; 0xe66 <__ctype_isfalse>
 d86:	80 32       	cpi	r24, 0x20	; 32
 d88:	19 f0       	breq	.+6      	; 0xd90 <isspace+0xe>
 d8a:	89 50       	subi	r24, 0x09	; 9
 d8c:	85 50       	subi	r24, 0x05	; 5
 d8e:	d0 f7       	brcc	.-12     	; 0xd84 <isspace+0x2>
 d90:	08 95       	ret

00000d92 <tolower>:
 d92:	91 11       	cpse	r25, r1
 d94:	08 95       	ret
 d96:	81 54       	subi	r24, 0x41	; 65
 d98:	8a 51       	subi	r24, 0x1A	; 26
 d9a:	08 f4       	brcc	.+2      	; 0xd9e <tolower+0xc>
 d9c:	80 5e       	subi	r24, 0xE0	; 224
 d9e:	85 5a       	subi	r24, 0xA5	; 165
 da0:	08 95       	ret

00000da2 <strchr_P>:
 da2:	fc 01       	movw	r30, r24
 da4:	05 90       	lpm	r0, Z+
 da6:	06 16       	cp	r0, r22
 da8:	21 f0       	breq	.+8      	; 0xdb2 <strchr_P+0x10>
 daa:	00 20       	and	r0, r0
 dac:	d9 f7       	brne	.-10     	; 0xda4 <strchr_P+0x2>
 dae:	c0 01       	movw	r24, r0
 db0:	08 95       	ret
 db2:	31 97       	sbiw	r30, 0x01	; 1
 db4:	cf 01       	movw	r24, r30
 db6:	08 95       	ret

00000db8 <fgetc>:
 db8:	cf 93       	push	r28
 dba:	df 93       	push	r29
 dbc:	ec 01       	movw	r28, r24
 dbe:	2b 81       	ldd	r18, Y+3	; 0x03
 dc0:	20 ff       	sbrs	r18, 0
 dc2:	33 c0       	rjmp	.+102    	; 0xe2a <fgetc+0x72>
 dc4:	26 ff       	sbrs	r18, 6
 dc6:	0a c0       	rjmp	.+20     	; 0xddc <fgetc+0x24>
 dc8:	2f 7b       	andi	r18, 0xBF	; 191
 dca:	2b 83       	std	Y+3, r18	; 0x03
 dcc:	8e 81       	ldd	r24, Y+6	; 0x06
 dce:	9f 81       	ldd	r25, Y+7	; 0x07
 dd0:	01 96       	adiw	r24, 0x01	; 1
 dd2:	9f 83       	std	Y+7, r25	; 0x07
 dd4:	8e 83       	std	Y+6, r24	; 0x06
 dd6:	8a 81       	ldd	r24, Y+2	; 0x02
 dd8:	90 e0       	ldi	r25, 0x00	; 0
 dda:	29 c0       	rjmp	.+82     	; 0xe2e <fgetc+0x76>
 ddc:	22 ff       	sbrs	r18, 2
 dde:	0f c0       	rjmp	.+30     	; 0xdfe <fgetc+0x46>
 de0:	e8 81       	ld	r30, Y
 de2:	f9 81       	ldd	r31, Y+1	; 0x01
 de4:	80 81       	ld	r24, Z
 de6:	99 27       	eor	r25, r25
 de8:	87 fd       	sbrc	r24, 7
 dea:	90 95       	com	r25
 dec:	00 97       	sbiw	r24, 0x00	; 0
 dee:	19 f4       	brne	.+6      	; 0xdf6 <fgetc+0x3e>
 df0:	20 62       	ori	r18, 0x20	; 32
 df2:	2b 83       	std	Y+3, r18	; 0x03
 df4:	1a c0       	rjmp	.+52     	; 0xe2a <fgetc+0x72>
 df6:	31 96       	adiw	r30, 0x01	; 1
 df8:	f9 83       	std	Y+1, r31	; 0x01
 dfa:	e8 83       	st	Y, r30
 dfc:	0e c0       	rjmp	.+28     	; 0xe1a <fgetc+0x62>
 dfe:	ea 85       	ldd	r30, Y+10	; 0x0a
 e00:	fb 85       	ldd	r31, Y+11	; 0x0b
 e02:	09 95       	icall
 e04:	97 ff       	sbrs	r25, 7
 e06:	09 c0       	rjmp	.+18     	; 0xe1a <fgetc+0x62>
 e08:	2b 81       	ldd	r18, Y+3	; 0x03
 e0a:	01 96       	adiw	r24, 0x01	; 1
 e0c:	11 f4       	brne	.+4      	; 0xe12 <fgetc+0x5a>
 e0e:	80 e1       	ldi	r24, 0x10	; 16
 e10:	01 c0       	rjmp	.+2      	; 0xe14 <fgetc+0x5c>
 e12:	80 e2       	ldi	r24, 0x20	; 32
 e14:	82 2b       	or	r24, r18
 e16:	8b 83       	std	Y+3, r24	; 0x03
 e18:	08 c0       	rjmp	.+16     	; 0xe2a <fgetc+0x72>
 e1a:	2e 81       	ldd	r18, Y+6	; 0x06
 e1c:	3f 81       	ldd	r19, Y+7	; 0x07
 e1e:	2f 5f       	subi	r18, 0xFF	; 255
 e20:	3f 4f       	sbci	r19, 0xFF	; 255
 e22:	3f 83       	std	Y+7, r19	; 0x07
 e24:	2e 83       	std	Y+6, r18	; 0x06
 e26:	99 27       	eor	r25, r25
 e28:	02 c0       	rjmp	.+4      	; 0xe2e <fgetc+0x76>
 e2a:	8f ef       	ldi	r24, 0xFF	; 255
 e2c:	9f ef       	ldi	r25, 0xFF	; 255
 e2e:	df 91       	pop	r29
 e30:	cf 91       	pop	r28
 e32:	08 95       	ret

00000e34 <ungetc>:
 e34:	fb 01       	movw	r30, r22
 e36:	23 81       	ldd	r18, Z+3	; 0x03
 e38:	20 ff       	sbrs	r18, 0
 e3a:	12 c0       	rjmp	.+36     	; 0xe60 <ungetc+0x2c>
 e3c:	26 fd       	sbrc	r18, 6
 e3e:	10 c0       	rjmp	.+32     	; 0xe60 <ungetc+0x2c>
 e40:	8f 3f       	cpi	r24, 0xFF	; 255
 e42:	3f ef       	ldi	r19, 0xFF	; 255
 e44:	93 07       	cpc	r25, r19
 e46:	61 f0       	breq	.+24     	; 0xe60 <ungetc+0x2c>
 e48:	82 83       	std	Z+2, r24	; 0x02
 e4a:	2f 7d       	andi	r18, 0xDF	; 223
 e4c:	20 64       	ori	r18, 0x40	; 64
 e4e:	23 83       	std	Z+3, r18	; 0x03
 e50:	26 81       	ldd	r18, Z+6	; 0x06
 e52:	37 81       	ldd	r19, Z+7	; 0x07
 e54:	21 50       	subi	r18, 0x01	; 1
 e56:	31 09       	sbc	r19, r1
 e58:	37 83       	std	Z+7, r19	; 0x07
 e5a:	26 83       	std	Z+6, r18	; 0x06
 e5c:	99 27       	eor	r25, r25
 e5e:	08 95       	ret
 e60:	8f ef       	ldi	r24, 0xFF	; 255
 e62:	9f ef       	ldi	r25, 0xFF	; 255
 e64:	08 95       	ret

00000e66 <__ctype_isfalse>:
 e66:	99 27       	eor	r25, r25
 e68:	88 27       	eor	r24, r24

00000e6a <__ctype_istrue>:
 e6a:	08 95       	ret

00000e6c <_exit>:
 e6c:	f8 94       	cli

00000e6e <__stop_program>:
 e6e:	ff cf       	rjmp	.-2      	; 0xe6e <__stop_program>
